; Listing generated by Microsoft (R) Optimizing Compiler Version 17.00.61219.0 

	TITLE	D:\Projects\ASU\ICPDAS\TMMiniOS\TMMiniOS\DeviceClasses.cpp
	.686P
	.XMM
	include listing.inc
	.model	flat

INCLUDELIB MSVCRTD
INCLUDELIB OLDNAMES

PUBLIC	?skipws@?$_Iosb@H@std@@2W4_Fmtflags@12@B	; std::_Iosb<int>::skipws
PUBLIC	?unitbuf@?$_Iosb@H@std@@2W4_Fmtflags@12@B	; std::_Iosb<int>::unitbuf
PUBLIC	?uppercase@?$_Iosb@H@std@@2W4_Fmtflags@12@B	; std::_Iosb<int>::uppercase
PUBLIC	?showbase@?$_Iosb@H@std@@2W4_Fmtflags@12@B	; std::_Iosb<int>::showbase
PUBLIC	?showpoint@?$_Iosb@H@std@@2W4_Fmtflags@12@B	; std::_Iosb<int>::showpoint
PUBLIC	?showpos@?$_Iosb@H@std@@2W4_Fmtflags@12@B	; std::_Iosb<int>::showpos
PUBLIC	?left@?$_Iosb@H@std@@2W4_Fmtflags@12@B		; std::_Iosb<int>::left
PUBLIC	?right@?$_Iosb@H@std@@2W4_Fmtflags@12@B		; std::_Iosb<int>::right
PUBLIC	?internal@?$_Iosb@H@std@@2W4_Fmtflags@12@B	; std::_Iosb<int>::internal
PUBLIC	?dec@?$_Iosb@H@std@@2W4_Fmtflags@12@B		; std::_Iosb<int>::dec
PUBLIC	?oct@?$_Iosb@H@std@@2W4_Fmtflags@12@B		; std::_Iosb<int>::oct
PUBLIC	?hex@?$_Iosb@H@std@@2W4_Fmtflags@12@B		; std::_Iosb<int>::hex
PUBLIC	?scientific@?$_Iosb@H@std@@2W4_Fmtflags@12@B	; std::_Iosb<int>::scientific
PUBLIC	?fixed@?$_Iosb@H@std@@2W4_Fmtflags@12@B		; std::_Iosb<int>::fixed
PUBLIC	?hexfloat@?$_Iosb@H@std@@2W4_Fmtflags@12@B	; std::_Iosb<int>::hexfloat
PUBLIC	?boolalpha@?$_Iosb@H@std@@2W4_Fmtflags@12@B	; std::_Iosb<int>::boolalpha
PUBLIC	?_Stdio@?$_Iosb@H@std@@2W4_Fmtflags@12@B	; std::_Iosb<int>::_Stdio
PUBLIC	?adjustfield@?$_Iosb@H@std@@2W4_Fmtflags@12@B	; std::_Iosb<int>::adjustfield
PUBLIC	?basefield@?$_Iosb@H@std@@2W4_Fmtflags@12@B	; std::_Iosb<int>::basefield
PUBLIC	?floatfield@?$_Iosb@H@std@@2W4_Fmtflags@12@B	; std::_Iosb<int>::floatfield
PUBLIC	?goodbit@?$_Iosb@H@std@@2W4_Iostate@12@B	; std::_Iosb<int>::goodbit
PUBLIC	?eofbit@?$_Iosb@H@std@@2W4_Iostate@12@B		; std::_Iosb<int>::eofbit
PUBLIC	?failbit@?$_Iosb@H@std@@2W4_Iostate@12@B	; std::_Iosb<int>::failbit
PUBLIC	?badbit@?$_Iosb@H@std@@2W4_Iostate@12@B		; std::_Iosb<int>::badbit
PUBLIC	?_Hardfail@?$_Iosb@H@std@@2W4_Iostate@12@B	; std::_Iosb<int>::_Hardfail
PUBLIC	?in@?$_Iosb@H@std@@2W4_Openmode@12@B		; std::_Iosb<int>::in
PUBLIC	?out@?$_Iosb@H@std@@2W4_Openmode@12@B		; std::_Iosb<int>::out
PUBLIC	?ate@?$_Iosb@H@std@@2W4_Openmode@12@B		; std::_Iosb<int>::ate
PUBLIC	?app@?$_Iosb@H@std@@2W4_Openmode@12@B		; std::_Iosb<int>::app
PUBLIC	?trunc@?$_Iosb@H@std@@2W4_Openmode@12@B		; std::_Iosb<int>::trunc
PUBLIC	?_Nocreate@?$_Iosb@H@std@@2W4_Openmode@12@B	; std::_Iosb<int>::_Nocreate
PUBLIC	?_Noreplace@?$_Iosb@H@std@@2W4_Openmode@12@B	; std::_Iosb<int>::_Noreplace
PUBLIC	?binary@?$_Iosb@H@std@@2W4_Openmode@12@B	; std::_Iosb<int>::binary
PUBLIC	?beg@?$_Iosb@H@std@@2W4_Seekdir@12@B		; std::_Iosb<int>::beg
PUBLIC	?cur@?$_Iosb@H@std@@2W4_Seekdir@12@B		; std::_Iosb<int>::cur
PUBLIC	?end@?$_Iosb@H@std@@2W4_Seekdir@12@B		; std::_Iosb<int>::end
PUBLIC	?_Stream_err@failure@ios_base@std@@0W4io_errc@43@B ; std::ios_base::failure::_Stream_err
PUBLIC	?collate@?$_Locbase@H@std@@2HB			; std::_Locbase<int>::collate
PUBLIC	?ctype@?$_Locbase@H@std@@2HB			; std::_Locbase<int>::ctype
PUBLIC	?has_denorm@_Num_base@std@@2W4float_denorm_style@2@B ; std::_Num_base::has_denorm
PUBLIC	?monetary@?$_Locbase@H@std@@2HB			; std::_Locbase<int>::monetary
PUBLIC	?numeric@?$_Locbase@H@std@@2HB			; std::_Locbase<int>::numeric
PUBLIC	?has_denorm_loss@_Num_base@std@@2_NB		; std::_Num_base::has_denorm_loss
PUBLIC	?time@?$_Locbase@H@std@@2HB			; std::_Locbase<int>::time
PUBLIC	?has_infinity@_Num_base@std@@2_NB		; std::_Num_base::has_infinity
PUBLIC	?messages@?$_Locbase@H@std@@2HB			; std::_Locbase<int>::messages
PUBLIC	?has_quiet_NaN@_Num_base@std@@2_NB		; std::_Num_base::has_quiet_NaN
PUBLIC	?all@?$_Locbase@H@std@@2HB			; std::_Locbase<int>::all
PUBLIC	?none@?$_Locbase@H@std@@2HB			; std::_Locbase<int>::none
PUBLIC	?has_signaling_NaN@_Num_base@std@@2_NB		; std::_Num_base::has_signaling_NaN
PUBLIC	?is_bounded@_Num_base@std@@2_NB			; std::_Num_base::is_bounded
PUBLIC	?is_exact@_Num_base@std@@2_NB			; std::_Num_base::is_exact
PUBLIC	?is_iec559@_Num_base@std@@2_NB			; std::_Num_base::is_iec559
PUBLIC	?is_integer@_Num_base@std@@2_NB			; std::_Num_base::is_integer
PUBLIC	?is_modulo@_Num_base@std@@2_NB			; std::_Num_base::is_modulo
PUBLIC	?is_signed@_Num_base@std@@2_NB			; std::_Num_base::is_signed
PUBLIC	?is_specialized@_Num_base@std@@2_NB		; std::_Num_base::is_specialized
PUBLIC	?tinyness_before@_Num_base@std@@2_NB		; std::_Num_base::tinyness_before
PUBLIC	?traps@_Num_base@std@@2_NB			; std::_Num_base::traps
PUBLIC	?round_style@_Num_base@std@@2W4float_round_style@2@B ; std::_Num_base::round_style
PUBLIC	?digits@_Num_base@std@@2HB			; std::_Num_base::digits
PUBLIC	?digits10@_Num_base@std@@2HB			; std::_Num_base::digits10
PUBLIC	?max_digits10@_Num_base@std@@2HB		; std::_Num_base::max_digits10
PUBLIC	?max_exponent@_Num_base@std@@2HB		; std::_Num_base::max_exponent
PUBLIC	?max_exponent10@_Num_base@std@@2HB		; std::_Num_base::max_exponent10
PUBLIC	?min_exponent@_Num_base@std@@2HB		; std::_Num_base::min_exponent
PUBLIC	?min_exponent10@_Num_base@std@@2HB		; std::_Num_base::min_exponent10
PUBLIC	?radix@_Num_base@std@@2HB			; std::_Num_base::radix
PUBLIC	?value@?$integral_constant@_N$0A@@std@@2_NB	; std::integral_constant<bool,0>::value
PUBLIC	?value@?$integral_constant@_N$00@std@@2_NB	; std::integral_constant<bool,1>::value
PUBLIC	?is_bounded@_Num_int_base@std@@2_NB		; std::_Num_int_base::is_bounded
PUBLIC	?is_exact@_Num_int_base@std@@2_NB		; std::_Num_int_base::is_exact
PUBLIC	?is_integer@_Num_int_base@std@@2_NB		; std::_Num_int_base::is_integer
PUBLIC	?is_modulo@_Num_int_base@std@@2_NB		; std::_Num_int_base::is_modulo
PUBLIC	?is_specialized@_Num_int_base@std@@2_NB		; std::_Num_int_base::is_specialized
PUBLIC	?radix@_Num_int_base@std@@2HB			; std::_Num_int_base::radix
PUBLIC	?has_denorm@_Num_float_base@std@@2W4float_denorm_style@2@B ; std::_Num_float_base::has_denorm
PUBLIC	?has_denorm_loss@_Num_float_base@std@@2_NB	; std::_Num_float_base::has_denorm_loss
PUBLIC	?has_infinity@_Num_float_base@std@@2_NB		; std::_Num_float_base::has_infinity
PUBLIC	?has_quiet_NaN@_Num_float_base@std@@2_NB	; std::_Num_float_base::has_quiet_NaN
PUBLIC	?has_signaling_NaN@_Num_float_base@std@@2_NB	; std::_Num_float_base::has_signaling_NaN
PUBLIC	?is_bounded@_Num_float_base@std@@2_NB		; std::_Num_float_base::is_bounded
PUBLIC	?is_exact@_Num_float_base@std@@2_NB		; std::_Num_float_base::is_exact
PUBLIC	?is_iec559@_Num_float_base@std@@2_NB		; std::_Num_float_base::is_iec559
PUBLIC	?is_integer@_Num_float_base@std@@2_NB		; std::_Num_float_base::is_integer
PUBLIC	?is_modulo@_Num_float_base@std@@2_NB		; std::_Num_float_base::is_modulo
PUBLIC	?is_signed@_Num_float_base@std@@2_NB		; std::_Num_float_base::is_signed
PUBLIC	?is_specialized@_Num_float_base@std@@2_NB	; std::_Num_float_base::is_specialized
PUBLIC	?tinyness_before@_Num_float_base@std@@2_NB	; std::_Num_float_base::tinyness_before
PUBLIC	?traps@_Num_float_base@std@@2_NB		; std::_Num_float_base::traps
PUBLIC	?round_style@_Num_float_base@std@@2W4float_round_style@2@B ; std::_Num_float_base::round_style
PUBLIC	?radix@_Num_float_base@std@@2HB			; std::_Num_float_base::radix
PUBLIC	?is_signed@?$numeric_limits@D@std@@2_NB		; std::numeric_limits<char>::is_signed
PUBLIC	?digits@?$numeric_limits@D@std@@2HB		; std::numeric_limits<char>::digits
PUBLIC	?digits10@?$numeric_limits@D@std@@2HB		; std::numeric_limits<char>::digits10
PUBLIC	?is_signed@?$numeric_limits@_W@std@@2_NB	; std::numeric_limits<wchar_t>::is_signed
PUBLIC	?digits@?$numeric_limits@_W@std@@2HB		; std::numeric_limits<wchar_t>::digits
PUBLIC	?digits10@?$numeric_limits@_W@std@@2HB		; std::numeric_limits<wchar_t>::digits10
PUBLIC	?is_modulo@?$numeric_limits@_N@std@@2_NB	; std::numeric_limits<bool>::is_modulo
PUBLIC	?is_signed@?$numeric_limits@_N@std@@2_NB	; std::numeric_limits<bool>::is_signed
PUBLIC	?digits@?$numeric_limits@_N@std@@2HB		; std::numeric_limits<bool>::digits
PUBLIC	?digits10@?$numeric_limits@_N@std@@2HB		; std::numeric_limits<bool>::digits10
PUBLIC	?is_signed@?$numeric_limits@C@std@@2_NB		; std::numeric_limits<signed char>::is_signed
PUBLIC	?digits@?$numeric_limits@C@std@@2HB		; std::numeric_limits<signed char>::digits
PUBLIC	?digits10@?$numeric_limits@C@std@@2HB		; std::numeric_limits<signed char>::digits10
PUBLIC	?is_signed@?$numeric_limits@E@std@@2_NB		; std::numeric_limits<unsigned char>::is_signed
PUBLIC	?digits@?$numeric_limits@E@std@@2HB		; std::numeric_limits<unsigned char>::digits
PUBLIC	?digits10@?$numeric_limits@E@std@@2HB		; std::numeric_limits<unsigned char>::digits10
PUBLIC	?is_signed@?$numeric_limits@F@std@@2_NB		; std::numeric_limits<short>::is_signed
PUBLIC	?digits@?$numeric_limits@F@std@@2HB		; std::numeric_limits<short>::digits
PUBLIC	?digits10@?$numeric_limits@F@std@@2HB		; std::numeric_limits<short>::digits10
PUBLIC	?is_signed@?$numeric_limits@G@std@@2_NB		; std::numeric_limits<unsigned short>::is_signed
PUBLIC	?digits@?$numeric_limits@G@std@@2HB		; std::numeric_limits<unsigned short>::digits
PUBLIC	?digits10@?$numeric_limits@G@std@@2HB		; std::numeric_limits<unsigned short>::digits10
PUBLIC	?value@?$_Sizeof@HU_Nil@std@@U12@U12@U12@U12@U12@U12@@std@@2IB ; std::_Sizeof<int,std::_Nil,std::_Nil,std::_Nil,std::_Nil,std::_Nil,std::_Nil,std::_Nil>::value
PUBLIC	?is_signed@?$numeric_limits@H@std@@2_NB		; std::numeric_limits<int>::is_signed
PUBLIC	?digits@?$numeric_limits@H@std@@2HB		; std::numeric_limits<int>::digits
PUBLIC	?digits10@?$numeric_limits@H@std@@2HB		; std::numeric_limits<int>::digits10
PUBLIC	?is_signed@?$numeric_limits@I@std@@2_NB		; std::numeric_limits<unsigned int>::is_signed
PUBLIC	?digits@?$numeric_limits@I@std@@2HB		; std::numeric_limits<unsigned int>::digits
PUBLIC	?digits10@?$numeric_limits@I@std@@2HB		; std::numeric_limits<unsigned int>::digits10
PUBLIC	?is_signed@?$numeric_limits@J@std@@2_NB		; std::numeric_limits<long>::is_signed
PUBLIC	?digits@?$numeric_limits@J@std@@2HB		; std::numeric_limits<long>::digits
PUBLIC	?digits10@?$numeric_limits@J@std@@2HB		; std::numeric_limits<long>::digits10
PUBLIC	?is_signed@?$numeric_limits@K@std@@2_NB		; std::numeric_limits<unsigned long>::is_signed
PUBLIC	?digits@?$numeric_limits@K@std@@2HB		; std::numeric_limits<unsigned long>::digits
PUBLIC	?digits10@?$numeric_limits@K@std@@2HB		; std::numeric_limits<unsigned long>::digits10
PUBLIC	?is_signed@?$numeric_limits@_J@std@@2_NB	; std::numeric_limits<__int64>::is_signed
PUBLIC	?digits@?$numeric_limits@_J@std@@2HB		; std::numeric_limits<__int64>::digits
PUBLIC	?digits10@?$numeric_limits@_J@std@@2HB		; std::numeric_limits<__int64>::digits10
PUBLIC	?is_signed@?$numeric_limits@_K@std@@2_NB	; std::numeric_limits<unsigned __int64>::is_signed
PUBLIC	?digits@?$numeric_limits@_K@std@@2HB		; std::numeric_limits<unsigned __int64>::digits
PUBLIC	?digits10@?$numeric_limits@_K@std@@2HB		; std::numeric_limits<unsigned __int64>::digits10
PUBLIC	?digits@?$numeric_limits@M@std@@2HB		; std::numeric_limits<float>::digits
PUBLIC	?digits10@?$numeric_limits@M@std@@2HB		; std::numeric_limits<float>::digits10
PUBLIC	?max_digits10@?$numeric_limits@M@std@@2HB	; std::numeric_limits<float>::max_digits10
PUBLIC	?max_exponent@?$numeric_limits@M@std@@2HB	; std::numeric_limits<float>::max_exponent
PUBLIC	?max_exponent10@?$numeric_limits@M@std@@2HB	; std::numeric_limits<float>::max_exponent10
PUBLIC	?min_exponent@?$numeric_limits@M@std@@2HB	; std::numeric_limits<float>::min_exponent
PUBLIC	?value@?$integral_constant@I$0A@@std@@2IB	; std::integral_constant<unsigned int,0>::value
PUBLIC	?min_exponent10@?$numeric_limits@M@std@@2HB	; std::numeric_limits<float>::min_exponent10
PUBLIC	?digits@?$numeric_limits@N@std@@2HB		; std::numeric_limits<double>::digits
PUBLIC	?digits10@?$numeric_limits@N@std@@2HB		; std::numeric_limits<double>::digits10
PUBLIC	?max_digits10@?$numeric_limits@N@std@@2HB	; std::numeric_limits<double>::max_digits10
PUBLIC	?max_exponent@?$numeric_limits@N@std@@2HB	; std::numeric_limits<double>::max_exponent
PUBLIC	?max_exponent10@?$numeric_limits@N@std@@2HB	; std::numeric_limits<double>::max_exponent10
PUBLIC	?min_exponent@?$numeric_limits@N@std@@2HB	; std::numeric_limits<double>::min_exponent
PUBLIC	?min_exponent10@?$numeric_limits@N@std@@2HB	; std::numeric_limits<double>::min_exponent10
PUBLIC	?digits@?$numeric_limits@O@std@@2HB		; std::numeric_limits<long double>::digits
PUBLIC	?digits10@?$numeric_limits@O@std@@2HB		; std::numeric_limits<long double>::digits10
PUBLIC	?max_digits10@?$numeric_limits@O@std@@2HB	; std::numeric_limits<long double>::max_digits10
PUBLIC	?max_exponent@?$numeric_limits@O@std@@2HB	; std::numeric_limits<long double>::max_exponent
PUBLIC	?value@?$_Sizeof@U_Nil@std@@U12@U12@U12@U12@U12@U12@U12@@std@@2IB ; std::_Sizeof<std::_Nil,std::_Nil,std::_Nil,std::_Nil,std::_Nil,std::_Nil,std::_Nil,std::_Nil>::value
PUBLIC	?max_exponent10@?$numeric_limits@O@std@@2HB	; std::numeric_limits<long double>::max_exponent10
PUBLIC	?min_exponent@?$numeric_limits@O@std@@2HB	; std::numeric_limits<long double>::min_exponent
PUBLIC	?min_exponent10@?$numeric_limits@O@std@@2HB	; std::numeric_limits<long double>::min_exponent10
;	COMDAT ?min_exponent10@?$numeric_limits@O@std@@2HB
CONST	SEGMENT
?min_exponent10@?$numeric_limits@O@std@@2HB DD 0fffffecdH ; std::numeric_limits<long double>::min_exponent10
CONST	ENDS
;	COMDAT ?min_exponent@?$numeric_limits@O@std@@2HB
CONST	SEGMENT
?min_exponent@?$numeric_limits@O@std@@2HB DD 0fffffc03H	; std::numeric_limits<long double>::min_exponent
CONST	ENDS
;	COMDAT ?max_exponent10@?$numeric_limits@O@std@@2HB
CONST	SEGMENT
?max_exponent10@?$numeric_limits@O@std@@2HB DD 0134H	; std::numeric_limits<long double>::max_exponent10
CONST	ENDS
;	COMDAT ?value@?$_Sizeof@U_Nil@std@@U12@U12@U12@U12@U12@U12@U12@@std@@2IB
CONST	SEGMENT
?value@?$_Sizeof@U_Nil@std@@U12@U12@U12@U12@U12@U12@U12@@std@@2IB DD 00H ; std::_Sizeof<std::_Nil,std::_Nil,std::_Nil,std::_Nil,std::_Nil,std::_Nil,std::_Nil,std::_Nil>::value
CONST	ENDS
;	COMDAT ?max_exponent@?$numeric_limits@O@std@@2HB
CONST	SEGMENT
?max_exponent@?$numeric_limits@O@std@@2HB DD 0400H	; std::numeric_limits<long double>::max_exponent
CONST	ENDS
;	COMDAT ?max_digits10@?$numeric_limits@O@std@@2HB
CONST	SEGMENT
?max_digits10@?$numeric_limits@O@std@@2HB DD 011H	; std::numeric_limits<long double>::max_digits10
CONST	ENDS
;	COMDAT ?digits10@?$numeric_limits@O@std@@2HB
CONST	SEGMENT
?digits10@?$numeric_limits@O@std@@2HB DD 0fH		; std::numeric_limits<long double>::digits10
CONST	ENDS
;	COMDAT ?digits@?$numeric_limits@O@std@@2HB
CONST	SEGMENT
?digits@?$numeric_limits@O@std@@2HB DD 035H		; std::numeric_limits<long double>::digits
CONST	ENDS
;	COMDAT ?min_exponent10@?$numeric_limits@N@std@@2HB
CONST	SEGMENT
?min_exponent10@?$numeric_limits@N@std@@2HB DD 0fffffecdH ; std::numeric_limits<double>::min_exponent10
CONST	ENDS
;	COMDAT ?min_exponent@?$numeric_limits@N@std@@2HB
CONST	SEGMENT
?min_exponent@?$numeric_limits@N@std@@2HB DD 0fffffc03H	; std::numeric_limits<double>::min_exponent
CONST	ENDS
;	COMDAT ?max_exponent10@?$numeric_limits@N@std@@2HB
CONST	SEGMENT
?max_exponent10@?$numeric_limits@N@std@@2HB DD 0134H	; std::numeric_limits<double>::max_exponent10
CONST	ENDS
;	COMDAT ?max_exponent@?$numeric_limits@N@std@@2HB
CONST	SEGMENT
?max_exponent@?$numeric_limits@N@std@@2HB DD 0400H	; std::numeric_limits<double>::max_exponent
CONST	ENDS
;	COMDAT ?max_digits10@?$numeric_limits@N@std@@2HB
CONST	SEGMENT
?max_digits10@?$numeric_limits@N@std@@2HB DD 011H	; std::numeric_limits<double>::max_digits10
CONST	ENDS
;	COMDAT ?digits10@?$numeric_limits@N@std@@2HB
CONST	SEGMENT
?digits10@?$numeric_limits@N@std@@2HB DD 0fH		; std::numeric_limits<double>::digits10
CONST	ENDS
;	COMDAT ?digits@?$numeric_limits@N@std@@2HB
CONST	SEGMENT
?digits@?$numeric_limits@N@std@@2HB DD 035H		; std::numeric_limits<double>::digits
CONST	ENDS
;	COMDAT ?min_exponent10@?$numeric_limits@M@std@@2HB
CONST	SEGMENT
?min_exponent10@?$numeric_limits@M@std@@2HB DD 0ffffffdbH ; std::numeric_limits<float>::min_exponent10
CONST	ENDS
;	COMDAT ?value@?$integral_constant@I$0A@@std@@2IB
CONST	SEGMENT
?value@?$integral_constant@I$0A@@std@@2IB DD 00H	; std::integral_constant<unsigned int,0>::value
CONST	ENDS
;	COMDAT ?min_exponent@?$numeric_limits@M@std@@2HB
CONST	SEGMENT
?min_exponent@?$numeric_limits@M@std@@2HB DD 0ffffff83H	; std::numeric_limits<float>::min_exponent
CONST	ENDS
;	COMDAT ?max_exponent10@?$numeric_limits@M@std@@2HB
CONST	SEGMENT
?max_exponent10@?$numeric_limits@M@std@@2HB DD 026H	; std::numeric_limits<float>::max_exponent10
CONST	ENDS
;	COMDAT ?max_exponent@?$numeric_limits@M@std@@2HB
CONST	SEGMENT
?max_exponent@?$numeric_limits@M@std@@2HB DD 080H	; std::numeric_limits<float>::max_exponent
CONST	ENDS
;	COMDAT ?max_digits10@?$numeric_limits@M@std@@2HB
CONST	SEGMENT
?max_digits10@?$numeric_limits@M@std@@2HB DD 09H	; std::numeric_limits<float>::max_digits10
CONST	ENDS
;	COMDAT ?digits10@?$numeric_limits@M@std@@2HB
CONST	SEGMENT
?digits10@?$numeric_limits@M@std@@2HB DD 06H		; std::numeric_limits<float>::digits10
CONST	ENDS
;	COMDAT ?digits@?$numeric_limits@M@std@@2HB
CONST	SEGMENT
?digits@?$numeric_limits@M@std@@2HB DD 018H		; std::numeric_limits<float>::digits
CONST	ENDS
;	COMDAT ?digits10@?$numeric_limits@_K@std@@2HB
CONST	SEGMENT
?digits10@?$numeric_limits@_K@std@@2HB DD 013H		; std::numeric_limits<unsigned __int64>::digits10
CONST	ENDS
;	COMDAT ?digits@?$numeric_limits@_K@std@@2HB
CONST	SEGMENT
?digits@?$numeric_limits@_K@std@@2HB DD 040H		; std::numeric_limits<unsigned __int64>::digits
CONST	ENDS
;	COMDAT ?is_signed@?$numeric_limits@_K@std@@2_NB
CONST	SEGMENT
?is_signed@?$numeric_limits@_K@std@@2_NB DB 00H		; std::numeric_limits<unsigned __int64>::is_signed
CONST	ENDS
;	COMDAT ?digits10@?$numeric_limits@_J@std@@2HB
CONST	SEGMENT
?digits10@?$numeric_limits@_J@std@@2HB DD 012H		; std::numeric_limits<__int64>::digits10
CONST	ENDS
;	COMDAT ?digits@?$numeric_limits@_J@std@@2HB
CONST	SEGMENT
?digits@?$numeric_limits@_J@std@@2HB DD 03fH		; std::numeric_limits<__int64>::digits
CONST	ENDS
;	COMDAT ?is_signed@?$numeric_limits@_J@std@@2_NB
CONST	SEGMENT
?is_signed@?$numeric_limits@_J@std@@2_NB DB 01H		; std::numeric_limits<__int64>::is_signed
CONST	ENDS
;	COMDAT ?digits10@?$numeric_limits@K@std@@2HB
CONST	SEGMENT
?digits10@?$numeric_limits@K@std@@2HB DD 09H		; std::numeric_limits<unsigned long>::digits10
CONST	ENDS
;	COMDAT ?digits@?$numeric_limits@K@std@@2HB
CONST	SEGMENT
?digits@?$numeric_limits@K@std@@2HB DD 020H		; std::numeric_limits<unsigned long>::digits
CONST	ENDS
;	COMDAT ?is_signed@?$numeric_limits@K@std@@2_NB
CONST	SEGMENT
?is_signed@?$numeric_limits@K@std@@2_NB DB 00H		; std::numeric_limits<unsigned long>::is_signed
CONST	ENDS
;	COMDAT ?digits10@?$numeric_limits@J@std@@2HB
CONST	SEGMENT
?digits10@?$numeric_limits@J@std@@2HB DD 09H		; std::numeric_limits<long>::digits10
CONST	ENDS
;	COMDAT ?digits@?$numeric_limits@J@std@@2HB
CONST	SEGMENT
?digits@?$numeric_limits@J@std@@2HB DD 01fH		; std::numeric_limits<long>::digits
CONST	ENDS
;	COMDAT ?is_signed@?$numeric_limits@J@std@@2_NB
CONST	SEGMENT
?is_signed@?$numeric_limits@J@std@@2_NB DB 01H		; std::numeric_limits<long>::is_signed
CONST	ENDS
;	COMDAT ?digits10@?$numeric_limits@I@std@@2HB
CONST	SEGMENT
?digits10@?$numeric_limits@I@std@@2HB DD 09H		; std::numeric_limits<unsigned int>::digits10
CONST	ENDS
;	COMDAT ?digits@?$numeric_limits@I@std@@2HB
CONST	SEGMENT
?digits@?$numeric_limits@I@std@@2HB DD 020H		; std::numeric_limits<unsigned int>::digits
CONST	ENDS
;	COMDAT ?is_signed@?$numeric_limits@I@std@@2_NB
CONST	SEGMENT
?is_signed@?$numeric_limits@I@std@@2_NB DB 00H		; std::numeric_limits<unsigned int>::is_signed
CONST	ENDS
;	COMDAT ?digits10@?$numeric_limits@H@std@@2HB
CONST	SEGMENT
?digits10@?$numeric_limits@H@std@@2HB DD 09H		; std::numeric_limits<int>::digits10
CONST	ENDS
;	COMDAT ?digits@?$numeric_limits@H@std@@2HB
CONST	SEGMENT
?digits@?$numeric_limits@H@std@@2HB DD 01fH		; std::numeric_limits<int>::digits
CONST	ENDS
;	COMDAT ?is_signed@?$numeric_limits@H@std@@2_NB
CONST	SEGMENT
?is_signed@?$numeric_limits@H@std@@2_NB DB 01H		; std::numeric_limits<int>::is_signed
CONST	ENDS
;	COMDAT ?value@?$_Sizeof@HU_Nil@std@@U12@U12@U12@U12@U12@U12@@std@@2IB
CONST	SEGMENT
?value@?$_Sizeof@HU_Nil@std@@U12@U12@U12@U12@U12@U12@@std@@2IB DD 01H ; std::_Sizeof<int,std::_Nil,std::_Nil,std::_Nil,std::_Nil,std::_Nil,std::_Nil,std::_Nil>::value
CONST	ENDS
;	COMDAT ?digits10@?$numeric_limits@G@std@@2HB
CONST	SEGMENT
?digits10@?$numeric_limits@G@std@@2HB DD 04H		; std::numeric_limits<unsigned short>::digits10
CONST	ENDS
;	COMDAT ?digits@?$numeric_limits@G@std@@2HB
CONST	SEGMENT
?digits@?$numeric_limits@G@std@@2HB DD 010H		; std::numeric_limits<unsigned short>::digits
CONST	ENDS
;	COMDAT ?is_signed@?$numeric_limits@G@std@@2_NB
CONST	SEGMENT
?is_signed@?$numeric_limits@G@std@@2_NB DB 00H		; std::numeric_limits<unsigned short>::is_signed
CONST	ENDS
;	COMDAT ?digits10@?$numeric_limits@F@std@@2HB
CONST	SEGMENT
?digits10@?$numeric_limits@F@std@@2HB DD 04H		; std::numeric_limits<short>::digits10
CONST	ENDS
;	COMDAT ?digits@?$numeric_limits@F@std@@2HB
CONST	SEGMENT
?digits@?$numeric_limits@F@std@@2HB DD 0fH		; std::numeric_limits<short>::digits
CONST	ENDS
;	COMDAT ?is_signed@?$numeric_limits@F@std@@2_NB
CONST	SEGMENT
?is_signed@?$numeric_limits@F@std@@2_NB DB 01H		; std::numeric_limits<short>::is_signed
CONST	ENDS
;	COMDAT ?digits10@?$numeric_limits@E@std@@2HB
CONST	SEGMENT
?digits10@?$numeric_limits@E@std@@2HB DD 02H		; std::numeric_limits<unsigned char>::digits10
CONST	ENDS
;	COMDAT ?digits@?$numeric_limits@E@std@@2HB
CONST	SEGMENT
?digits@?$numeric_limits@E@std@@2HB DD 08H		; std::numeric_limits<unsigned char>::digits
CONST	ENDS
;	COMDAT ?is_signed@?$numeric_limits@E@std@@2_NB
CONST	SEGMENT
?is_signed@?$numeric_limits@E@std@@2_NB DB 00H		; std::numeric_limits<unsigned char>::is_signed
CONST	ENDS
;	COMDAT ?digits10@?$numeric_limits@C@std@@2HB
CONST	SEGMENT
?digits10@?$numeric_limits@C@std@@2HB DD 02H		; std::numeric_limits<signed char>::digits10
CONST	ENDS
;	COMDAT ?digits@?$numeric_limits@C@std@@2HB
CONST	SEGMENT
?digits@?$numeric_limits@C@std@@2HB DD 07H		; std::numeric_limits<signed char>::digits
CONST	ENDS
;	COMDAT ?is_signed@?$numeric_limits@C@std@@2_NB
CONST	SEGMENT
?is_signed@?$numeric_limits@C@std@@2_NB DB 01H		; std::numeric_limits<signed char>::is_signed
CONST	ENDS
;	COMDAT ?digits10@?$numeric_limits@_N@std@@2HB
CONST	SEGMENT
?digits10@?$numeric_limits@_N@std@@2HB DD 00H		; std::numeric_limits<bool>::digits10
CONST	ENDS
;	COMDAT ?digits@?$numeric_limits@_N@std@@2HB
CONST	SEGMENT
?digits@?$numeric_limits@_N@std@@2HB DD 01H		; std::numeric_limits<bool>::digits
CONST	ENDS
;	COMDAT ?is_signed@?$numeric_limits@_N@std@@2_NB
CONST	SEGMENT
?is_signed@?$numeric_limits@_N@std@@2_NB DB 00H		; std::numeric_limits<bool>::is_signed
CONST	ENDS
;	COMDAT ?is_modulo@?$numeric_limits@_N@std@@2_NB
CONST	SEGMENT
?is_modulo@?$numeric_limits@_N@std@@2_NB DB 00H		; std::numeric_limits<bool>::is_modulo
CONST	ENDS
;	COMDAT ?digits10@?$numeric_limits@_W@std@@2HB
CONST	SEGMENT
?digits10@?$numeric_limits@_W@std@@2HB DD 04H		; std::numeric_limits<wchar_t>::digits10
CONST	ENDS
;	COMDAT ?digits@?$numeric_limits@_W@std@@2HB
CONST	SEGMENT
?digits@?$numeric_limits@_W@std@@2HB DD 010H		; std::numeric_limits<wchar_t>::digits
CONST	ENDS
;	COMDAT ?is_signed@?$numeric_limits@_W@std@@2_NB
CONST	SEGMENT
?is_signed@?$numeric_limits@_W@std@@2_NB DB 00H		; std::numeric_limits<wchar_t>::is_signed
CONST	ENDS
;	COMDAT ?digits10@?$numeric_limits@D@std@@2HB
CONST	SEGMENT
?digits10@?$numeric_limits@D@std@@2HB DD 02H		; std::numeric_limits<char>::digits10
CONST	ENDS
;	COMDAT ?digits@?$numeric_limits@D@std@@2HB
CONST	SEGMENT
?digits@?$numeric_limits@D@std@@2HB DD 07H		; std::numeric_limits<char>::digits
CONST	ENDS
;	COMDAT ?is_signed@?$numeric_limits@D@std@@2_NB
CONST	SEGMENT
?is_signed@?$numeric_limits@D@std@@2_NB DB 01H		; std::numeric_limits<char>::is_signed
CONST	ENDS
;	COMDAT ?radix@_Num_float_base@std@@2HB
CONST	SEGMENT
?radix@_Num_float_base@std@@2HB DD 02H			; std::_Num_float_base::radix
CONST	ENDS
;	COMDAT ?round_style@_Num_float_base@std@@2W4float_round_style@2@B
CONST	SEGMENT
?round_style@_Num_float_base@std@@2W4float_round_style@2@B DD 01H ; std::_Num_float_base::round_style
CONST	ENDS
;	COMDAT ?traps@_Num_float_base@std@@2_NB
CONST	SEGMENT
?traps@_Num_float_base@std@@2_NB DB 00H			; std::_Num_float_base::traps
CONST	ENDS
;	COMDAT ?tinyness_before@_Num_float_base@std@@2_NB
CONST	SEGMENT
?tinyness_before@_Num_float_base@std@@2_NB DB 01H	; std::_Num_float_base::tinyness_before
CONST	ENDS
;	COMDAT ?is_specialized@_Num_float_base@std@@2_NB
CONST	SEGMENT
?is_specialized@_Num_float_base@std@@2_NB DB 01H	; std::_Num_float_base::is_specialized
CONST	ENDS
;	COMDAT ?is_signed@_Num_float_base@std@@2_NB
CONST	SEGMENT
?is_signed@_Num_float_base@std@@2_NB DB 01H		; std::_Num_float_base::is_signed
CONST	ENDS
;	COMDAT ?is_modulo@_Num_float_base@std@@2_NB
CONST	SEGMENT
?is_modulo@_Num_float_base@std@@2_NB DB 00H		; std::_Num_float_base::is_modulo
CONST	ENDS
;	COMDAT ?is_integer@_Num_float_base@std@@2_NB
CONST	SEGMENT
?is_integer@_Num_float_base@std@@2_NB DB 00H		; std::_Num_float_base::is_integer
CONST	ENDS
;	COMDAT ?is_iec559@_Num_float_base@std@@2_NB
CONST	SEGMENT
?is_iec559@_Num_float_base@std@@2_NB DB 01H		; std::_Num_float_base::is_iec559
CONST	ENDS
;	COMDAT ?is_exact@_Num_float_base@std@@2_NB
CONST	SEGMENT
?is_exact@_Num_float_base@std@@2_NB DB 00H		; std::_Num_float_base::is_exact
CONST	ENDS
;	COMDAT ?is_bounded@_Num_float_base@std@@2_NB
CONST	SEGMENT
?is_bounded@_Num_float_base@std@@2_NB DB 01H		; std::_Num_float_base::is_bounded
CONST	ENDS
;	COMDAT ?has_signaling_NaN@_Num_float_base@std@@2_NB
CONST	SEGMENT
?has_signaling_NaN@_Num_float_base@std@@2_NB DB 01H	; std::_Num_float_base::has_signaling_NaN
CONST	ENDS
;	COMDAT ?has_quiet_NaN@_Num_float_base@std@@2_NB
CONST	SEGMENT
?has_quiet_NaN@_Num_float_base@std@@2_NB DB 01H		; std::_Num_float_base::has_quiet_NaN
CONST	ENDS
;	COMDAT ?has_infinity@_Num_float_base@std@@2_NB
CONST	SEGMENT
?has_infinity@_Num_float_base@std@@2_NB DB 01H		; std::_Num_float_base::has_infinity
CONST	ENDS
;	COMDAT ?has_denorm_loss@_Num_float_base@std@@2_NB
CONST	SEGMENT
?has_denorm_loss@_Num_float_base@std@@2_NB DB 01H	; std::_Num_float_base::has_denorm_loss
CONST	ENDS
;	COMDAT ?has_denorm@_Num_float_base@std@@2W4float_denorm_style@2@B
CONST	SEGMENT
?has_denorm@_Num_float_base@std@@2W4float_denorm_style@2@B DD 01H ; std::_Num_float_base::has_denorm
CONST	ENDS
;	COMDAT ?radix@_Num_int_base@std@@2HB
CONST	SEGMENT
?radix@_Num_int_base@std@@2HB DD 02H			; std::_Num_int_base::radix
CONST	ENDS
;	COMDAT ?is_specialized@_Num_int_base@std@@2_NB
CONST	SEGMENT
?is_specialized@_Num_int_base@std@@2_NB DB 01H		; std::_Num_int_base::is_specialized
CONST	ENDS
;	COMDAT ?is_modulo@_Num_int_base@std@@2_NB
CONST	SEGMENT
?is_modulo@_Num_int_base@std@@2_NB DB 01H		; std::_Num_int_base::is_modulo
CONST	ENDS
;	COMDAT ?is_integer@_Num_int_base@std@@2_NB
CONST	SEGMENT
?is_integer@_Num_int_base@std@@2_NB DB 01H		; std::_Num_int_base::is_integer
CONST	ENDS
;	COMDAT ?is_exact@_Num_int_base@std@@2_NB
CONST	SEGMENT
?is_exact@_Num_int_base@std@@2_NB DB 01H		; std::_Num_int_base::is_exact
CONST	ENDS
;	COMDAT ?is_bounded@_Num_int_base@std@@2_NB
CONST	SEGMENT
?is_bounded@_Num_int_base@std@@2_NB DB 01H		; std::_Num_int_base::is_bounded
CONST	ENDS
;	COMDAT ?value@?$integral_constant@_N$00@std@@2_NB
CONST	SEGMENT
?value@?$integral_constant@_N$00@std@@2_NB DB 01H	; std::integral_constant<bool,1>::value
CONST	ENDS
;	COMDAT ?value@?$integral_constant@_N$0A@@std@@2_NB
CONST	SEGMENT
?value@?$integral_constant@_N$0A@@std@@2_NB DB 00H	; std::integral_constant<bool,0>::value
CONST	ENDS
;	COMDAT ?radix@_Num_base@std@@2HB
CONST	SEGMENT
?radix@_Num_base@std@@2HB DD 00H			; std::_Num_base::radix
CONST	ENDS
;	COMDAT ?min_exponent10@_Num_base@std@@2HB
CONST	SEGMENT
?min_exponent10@_Num_base@std@@2HB DD 00H		; std::_Num_base::min_exponent10
CONST	ENDS
;	COMDAT ?min_exponent@_Num_base@std@@2HB
CONST	SEGMENT
?min_exponent@_Num_base@std@@2HB DD 00H			; std::_Num_base::min_exponent
CONST	ENDS
;	COMDAT ?max_exponent10@_Num_base@std@@2HB
CONST	SEGMENT
?max_exponent10@_Num_base@std@@2HB DD 00H		; std::_Num_base::max_exponent10
CONST	ENDS
;	COMDAT ?max_exponent@_Num_base@std@@2HB
CONST	SEGMENT
?max_exponent@_Num_base@std@@2HB DD 00H			; std::_Num_base::max_exponent
CONST	ENDS
;	COMDAT ?max_digits10@_Num_base@std@@2HB
CONST	SEGMENT
?max_digits10@_Num_base@std@@2HB DD 00H			; std::_Num_base::max_digits10
CONST	ENDS
;	COMDAT ?digits10@_Num_base@std@@2HB
CONST	SEGMENT
?digits10@_Num_base@std@@2HB DD 00H			; std::_Num_base::digits10
CONST	ENDS
;	COMDAT ?digits@_Num_base@std@@2HB
CONST	SEGMENT
?digits@_Num_base@std@@2HB DD 00H			; std::_Num_base::digits
CONST	ENDS
;	COMDAT ?round_style@_Num_base@std@@2W4float_round_style@2@B
CONST	SEGMENT
?round_style@_Num_base@std@@2W4float_round_style@2@B DD 00H ; std::_Num_base::round_style
CONST	ENDS
;	COMDAT ?traps@_Num_base@std@@2_NB
CONST	SEGMENT
?traps@_Num_base@std@@2_NB DB 00H			; std::_Num_base::traps
CONST	ENDS
;	COMDAT ?tinyness_before@_Num_base@std@@2_NB
CONST	SEGMENT
?tinyness_before@_Num_base@std@@2_NB DB 00H		; std::_Num_base::tinyness_before
CONST	ENDS
;	COMDAT ?is_specialized@_Num_base@std@@2_NB
CONST	SEGMENT
?is_specialized@_Num_base@std@@2_NB DB 00H		; std::_Num_base::is_specialized
CONST	ENDS
;	COMDAT ?is_signed@_Num_base@std@@2_NB
CONST	SEGMENT
?is_signed@_Num_base@std@@2_NB DB 00H			; std::_Num_base::is_signed
CONST	ENDS
;	COMDAT ?is_modulo@_Num_base@std@@2_NB
CONST	SEGMENT
?is_modulo@_Num_base@std@@2_NB DB 00H			; std::_Num_base::is_modulo
CONST	ENDS
;	COMDAT ?is_integer@_Num_base@std@@2_NB
CONST	SEGMENT
?is_integer@_Num_base@std@@2_NB DB 00H			; std::_Num_base::is_integer
CONST	ENDS
;	COMDAT ?is_iec559@_Num_base@std@@2_NB
CONST	SEGMENT
?is_iec559@_Num_base@std@@2_NB DB 00H			; std::_Num_base::is_iec559
CONST	ENDS
;	COMDAT ?is_exact@_Num_base@std@@2_NB
CONST	SEGMENT
?is_exact@_Num_base@std@@2_NB DB 00H			; std::_Num_base::is_exact
CONST	ENDS
;	COMDAT ?is_bounded@_Num_base@std@@2_NB
CONST	SEGMENT
?is_bounded@_Num_base@std@@2_NB DB 00H			; std::_Num_base::is_bounded
CONST	ENDS
;	COMDAT ?has_signaling_NaN@_Num_base@std@@2_NB
CONST	SEGMENT
?has_signaling_NaN@_Num_base@std@@2_NB DB 00H		; std::_Num_base::has_signaling_NaN
CONST	ENDS
;	COMDAT ?none@?$_Locbase@H@std@@2HB
CONST	SEGMENT
?none@?$_Locbase@H@std@@2HB DD 00H			; std::_Locbase<int>::none
CONST	ENDS
;	COMDAT ?all@?$_Locbase@H@std@@2HB
CONST	SEGMENT
?all@?$_Locbase@H@std@@2HB DD 03fH			; std::_Locbase<int>::all
CONST	ENDS
;	COMDAT ?has_quiet_NaN@_Num_base@std@@2_NB
CONST	SEGMENT
?has_quiet_NaN@_Num_base@std@@2_NB DB 00H		; std::_Num_base::has_quiet_NaN
CONST	ENDS
;	COMDAT ?messages@?$_Locbase@H@std@@2HB
CONST	SEGMENT
?messages@?$_Locbase@H@std@@2HB DD 020H			; std::_Locbase<int>::messages
CONST	ENDS
;	COMDAT ?has_infinity@_Num_base@std@@2_NB
CONST	SEGMENT
?has_infinity@_Num_base@std@@2_NB DB 00H		; std::_Num_base::has_infinity
CONST	ENDS
;	COMDAT ?time@?$_Locbase@H@std@@2HB
CONST	SEGMENT
?time@?$_Locbase@H@std@@2HB DD 010H			; std::_Locbase<int>::time
CONST	ENDS
;	COMDAT ?has_denorm_loss@_Num_base@std@@2_NB
CONST	SEGMENT
?has_denorm_loss@_Num_base@std@@2_NB DB 00H		; std::_Num_base::has_denorm_loss
CONST	ENDS
;	COMDAT ?numeric@?$_Locbase@H@std@@2HB
CONST	SEGMENT
?numeric@?$_Locbase@H@std@@2HB DD 08H			; std::_Locbase<int>::numeric
CONST	ENDS
;	COMDAT ?monetary@?$_Locbase@H@std@@2HB
CONST	SEGMENT
?monetary@?$_Locbase@H@std@@2HB DD 04H			; std::_Locbase<int>::monetary
CONST	ENDS
;	COMDAT ?has_denorm@_Num_base@std@@2W4float_denorm_style@2@B
CONST	SEGMENT
?has_denorm@_Num_base@std@@2W4float_denorm_style@2@B DD 00H ; std::_Num_base::has_denorm
CONST	ENDS
;	COMDAT ?ctype@?$_Locbase@H@std@@2HB
CONST	SEGMENT
?ctype@?$_Locbase@H@std@@2HB DD 02H			; std::_Locbase<int>::ctype
CONST	ENDS
;	COMDAT ?collate@?$_Locbase@H@std@@2HB
CONST	SEGMENT
?collate@?$_Locbase@H@std@@2HB DD 01H			; std::_Locbase<int>::collate
CONST	ENDS
;	COMDAT ?_Stream_err@failure@ios_base@std@@0W4io_errc@43@B
CONST	SEGMENT
?_Stream_err@failure@ios_base@std@@0W4io_errc@43@B DD 01H ; std::ios_base::failure::_Stream_err
CONST	ENDS
;	COMDAT ?end@?$_Iosb@H@std@@2W4_Seekdir@12@B
CONST	SEGMENT
?end@?$_Iosb@H@std@@2W4_Seekdir@12@B DD 02H		; std::_Iosb<int>::end
CONST	ENDS
;	COMDAT ?cur@?$_Iosb@H@std@@2W4_Seekdir@12@B
CONST	SEGMENT
?cur@?$_Iosb@H@std@@2W4_Seekdir@12@B DD 01H		; std::_Iosb<int>::cur
CONST	ENDS
;	COMDAT ?beg@?$_Iosb@H@std@@2W4_Seekdir@12@B
CONST	SEGMENT
?beg@?$_Iosb@H@std@@2W4_Seekdir@12@B DD 00H		; std::_Iosb<int>::beg
CONST	ENDS
;	COMDAT ?binary@?$_Iosb@H@std@@2W4_Openmode@12@B
CONST	SEGMENT
?binary@?$_Iosb@H@std@@2W4_Openmode@12@B DD 020H	; std::_Iosb<int>::binary
CONST	ENDS
;	COMDAT ?_Noreplace@?$_Iosb@H@std@@2W4_Openmode@12@B
CONST	SEGMENT
?_Noreplace@?$_Iosb@H@std@@2W4_Openmode@12@B DD 080H	; std::_Iosb<int>::_Noreplace
CONST	ENDS
;	COMDAT ?_Nocreate@?$_Iosb@H@std@@2W4_Openmode@12@B
CONST	SEGMENT
?_Nocreate@?$_Iosb@H@std@@2W4_Openmode@12@B DD 040H	; std::_Iosb<int>::_Nocreate
CONST	ENDS
;	COMDAT ?trunc@?$_Iosb@H@std@@2W4_Openmode@12@B
CONST	SEGMENT
?trunc@?$_Iosb@H@std@@2W4_Openmode@12@B DD 010H		; std::_Iosb<int>::trunc
CONST	ENDS
;	COMDAT ?app@?$_Iosb@H@std@@2W4_Openmode@12@B
CONST	SEGMENT
?app@?$_Iosb@H@std@@2W4_Openmode@12@B DD 08H		; std::_Iosb<int>::app
CONST	ENDS
;	COMDAT ?ate@?$_Iosb@H@std@@2W4_Openmode@12@B
CONST	SEGMENT
?ate@?$_Iosb@H@std@@2W4_Openmode@12@B DD 04H		; std::_Iosb<int>::ate
CONST	ENDS
;	COMDAT ?out@?$_Iosb@H@std@@2W4_Openmode@12@B
CONST	SEGMENT
?out@?$_Iosb@H@std@@2W4_Openmode@12@B DD 02H		; std::_Iosb<int>::out
CONST	ENDS
;	COMDAT ?in@?$_Iosb@H@std@@2W4_Openmode@12@B
CONST	SEGMENT
?in@?$_Iosb@H@std@@2W4_Openmode@12@B DD 01H		; std::_Iosb<int>::in
CONST	ENDS
;	COMDAT ?_Hardfail@?$_Iosb@H@std@@2W4_Iostate@12@B
CONST	SEGMENT
?_Hardfail@?$_Iosb@H@std@@2W4_Iostate@12@B DD 010H	; std::_Iosb<int>::_Hardfail
CONST	ENDS
;	COMDAT ?badbit@?$_Iosb@H@std@@2W4_Iostate@12@B
CONST	SEGMENT
?badbit@?$_Iosb@H@std@@2W4_Iostate@12@B DD 04H		; std::_Iosb<int>::badbit
CONST	ENDS
;	COMDAT ?failbit@?$_Iosb@H@std@@2W4_Iostate@12@B
CONST	SEGMENT
?failbit@?$_Iosb@H@std@@2W4_Iostate@12@B DD 02H		; std::_Iosb<int>::failbit
CONST	ENDS
;	COMDAT ?eofbit@?$_Iosb@H@std@@2W4_Iostate@12@B
CONST	SEGMENT
?eofbit@?$_Iosb@H@std@@2W4_Iostate@12@B DD 01H		; std::_Iosb<int>::eofbit
CONST	ENDS
;	COMDAT ?goodbit@?$_Iosb@H@std@@2W4_Iostate@12@B
CONST	SEGMENT
?goodbit@?$_Iosb@H@std@@2W4_Iostate@12@B DD 00H		; std::_Iosb<int>::goodbit
CONST	ENDS
;	COMDAT ?floatfield@?$_Iosb@H@std@@2W4_Fmtflags@12@B
CONST	SEGMENT
?floatfield@?$_Iosb@H@std@@2W4_Fmtflags@12@B DD 03000H	; std::_Iosb<int>::floatfield
CONST	ENDS
;	COMDAT ?basefield@?$_Iosb@H@std@@2W4_Fmtflags@12@B
CONST	SEGMENT
?basefield@?$_Iosb@H@std@@2W4_Fmtflags@12@B DD 0e00H	; std::_Iosb<int>::basefield
CONST	ENDS
;	COMDAT ?adjustfield@?$_Iosb@H@std@@2W4_Fmtflags@12@B
CONST	SEGMENT
?adjustfield@?$_Iosb@H@std@@2W4_Fmtflags@12@B DD 01c0H	; std::_Iosb<int>::adjustfield
CONST	ENDS
;	COMDAT ?_Stdio@?$_Iosb@H@std@@2W4_Fmtflags@12@B
CONST	SEGMENT
?_Stdio@?$_Iosb@H@std@@2W4_Fmtflags@12@B DD 08000H	; std::_Iosb<int>::_Stdio
CONST	ENDS
;	COMDAT ?boolalpha@?$_Iosb@H@std@@2W4_Fmtflags@12@B
CONST	SEGMENT
?boolalpha@?$_Iosb@H@std@@2W4_Fmtflags@12@B DD 04000H	; std::_Iosb<int>::boolalpha
CONST	ENDS
;	COMDAT ?hexfloat@?$_Iosb@H@std@@2W4_Fmtflags@12@B
CONST	SEGMENT
?hexfloat@?$_Iosb@H@std@@2W4_Fmtflags@12@B DD 03000H	; std::_Iosb<int>::hexfloat
CONST	ENDS
;	COMDAT ?fixed@?$_Iosb@H@std@@2W4_Fmtflags@12@B
CONST	SEGMENT
?fixed@?$_Iosb@H@std@@2W4_Fmtflags@12@B DD 02000H	; std::_Iosb<int>::fixed
CONST	ENDS
;	COMDAT ?scientific@?$_Iosb@H@std@@2W4_Fmtflags@12@B
CONST	SEGMENT
?scientific@?$_Iosb@H@std@@2W4_Fmtflags@12@B DD 01000H	; std::_Iosb<int>::scientific
CONST	ENDS
;	COMDAT ?hex@?$_Iosb@H@std@@2W4_Fmtflags@12@B
CONST	SEGMENT
?hex@?$_Iosb@H@std@@2W4_Fmtflags@12@B DD 0800H		; std::_Iosb<int>::hex
CONST	ENDS
;	COMDAT ?oct@?$_Iosb@H@std@@2W4_Fmtflags@12@B
CONST	SEGMENT
?oct@?$_Iosb@H@std@@2W4_Fmtflags@12@B DD 0400H		; std::_Iosb<int>::oct
CONST	ENDS
;	COMDAT ?dec@?$_Iosb@H@std@@2W4_Fmtflags@12@B
CONST	SEGMENT
?dec@?$_Iosb@H@std@@2W4_Fmtflags@12@B DD 0200H		; std::_Iosb<int>::dec
CONST	ENDS
;	COMDAT ?internal@?$_Iosb@H@std@@2W4_Fmtflags@12@B
CONST	SEGMENT
?internal@?$_Iosb@H@std@@2W4_Fmtflags@12@B DD 0100H	; std::_Iosb<int>::internal
CONST	ENDS
;	COMDAT ?right@?$_Iosb@H@std@@2W4_Fmtflags@12@B
CONST	SEGMENT
?right@?$_Iosb@H@std@@2W4_Fmtflags@12@B DD 080H		; std::_Iosb<int>::right
CONST	ENDS
;	COMDAT ?left@?$_Iosb@H@std@@2W4_Fmtflags@12@B
CONST	SEGMENT
?left@?$_Iosb@H@std@@2W4_Fmtflags@12@B DD 040H		; std::_Iosb<int>::left
CONST	ENDS
;	COMDAT ?showpos@?$_Iosb@H@std@@2W4_Fmtflags@12@B
CONST	SEGMENT
?showpos@?$_Iosb@H@std@@2W4_Fmtflags@12@B DD 020H	; std::_Iosb<int>::showpos
CONST	ENDS
;	COMDAT ?showpoint@?$_Iosb@H@std@@2W4_Fmtflags@12@B
CONST	SEGMENT
?showpoint@?$_Iosb@H@std@@2W4_Fmtflags@12@B DD 010H	; std::_Iosb<int>::showpoint
CONST	ENDS
;	COMDAT ?showbase@?$_Iosb@H@std@@2W4_Fmtflags@12@B
CONST	SEGMENT
?showbase@?$_Iosb@H@std@@2W4_Fmtflags@12@B DD 08H	; std::_Iosb<int>::showbase
CONST	ENDS
;	COMDAT ?uppercase@?$_Iosb@H@std@@2W4_Fmtflags@12@B
CONST	SEGMENT
?uppercase@?$_Iosb@H@std@@2W4_Fmtflags@12@B DD 04H	; std::_Iosb<int>::uppercase
CONST	ENDS
;	COMDAT ?unitbuf@?$_Iosb@H@std@@2W4_Fmtflags@12@B
CONST	SEGMENT
?unitbuf@?$_Iosb@H@std@@2W4_Fmtflags@12@B DD 02H	; std::_Iosb<int>::unitbuf
CONST	ENDS
;	COMDAT ?skipws@?$_Iosb@H@std@@2W4_Fmtflags@12@B
CONST	SEGMENT
?skipws@?$_Iosb@H@std@@2W4_Fmtflags@12@B DD 01H		; std::_Iosb<int>::skipws
CONST	ENDS
PUBLIC	??_H@YGXPAXIHP6EPAX0@Z@Z			; `vector constructor iterator'
PUBLIC	??2@YAPAXIPAX@Z					; operator new
PUBLIC	??3@YAXPAX0@Z					; operator delete
PUBLIC	?length@?$char_traits@D@std@@SAIPBD@Z		; std::char_traits<char>::length
PUBLIC	?copy@?$char_traits@D@std@@SAPADPADPBDI@Z	; std::char_traits<char>::copy
PUBLIC	?move@?$char_traits@D@std@@SAPADPADPBDI@Z	; std::char_traits<char>::move
PUBLIC	?assign@?$char_traits@D@std@@SAXAADABD@Z	; std::char_traits<char>::assign
PUBLIC	??0_Container_proxy@std@@QAE@XZ			; std::_Container_proxy::_Container_proxy
PUBLIC	??0?$allocator@D@std@@QAE@XZ			; std::allocator<char>::allocator<char>
PUBLIC	?deallocate@?$allocator@D@std@@QAEXPADI@Z	; std::allocator<char>::deallocate
PUBLIC	?allocate@?$allocator@D@std@@QAEPADI@Z		; std::allocator<char>::allocate
PUBLIC	?max_size@?$allocator@D@std@@QBEIXZ		; std::allocator<char>::max_size
PUBLIC	?max_size@?$allocator_traits@V?$allocator@D@std@@@std@@SAIABV?$allocator@D@2@@Z ; std::allocator_traits<std::allocator<char> >::max_size
PUBLIC	??0?$_Wrap_alloc@V?$allocator@D@std@@@std@@QAE@XZ ; std::_Wrap_alloc<std::allocator<char> >::_Wrap_alloc<std::allocator<char> >
PUBLIC	?allocate@?$_Wrap_alloc@V?$allocator@D@std@@@std@@QAEPADI@Z ; std::_Wrap_alloc<std::allocator<char> >::allocate
PUBLIC	?deallocate@?$_Wrap_alloc@V?$allocator@D@std@@@std@@QAEXPADI@Z ; std::_Wrap_alloc<std::allocator<char> >::deallocate
PUBLIC	?max_size@?$_Wrap_alloc@V?$allocator@D@std@@@std@@QBEIXZ ; std::_Wrap_alloc<std::allocator<char> >::max_size
PUBLIC	??0?$_String_val@U?$_Simple_types@D@std@@@std@@QAE@XZ ; std::_String_val<std::_Simple_types<char> >::_String_val<std::_Simple_types<char> >
PUBLIC	?_Myptr@?$_String_val@U?$_Simple_types@D@std@@@std@@QAEPADXZ ; std::_String_val<std::_Simple_types<char> >::_Myptr
PUBLIC	?_Myptr@?$_String_val@U?$_Simple_types@D@std@@@std@@QBEPBDXZ ; std::_String_val<std::_Simple_types<char> >::_Myptr
PUBLIC	??1?$_String_val@U?$_Simple_types@D@std@@@std@@QAE@XZ ; std::_String_val<std::_Simple_types<char> >::~_String_val<std::_Simple_types<char> >
PUBLIC	??0?$_String_alloc@$0A@U?$_String_base_types@DV?$allocator@D@std@@@std@@@std@@QAE@ABV?$allocator@D@1@@Z ; std::_String_alloc<0,std::_String_base_types<char,std::allocator<char> > >::_String_alloc<0,std::_String_base_types<char,std::allocator<char> > >
PUBLIC	??1?$_String_alloc@$0A@U?$_String_base_types@DV?$allocator@D@std@@@std@@@std@@QAE@XZ ; std::_String_alloc<0,std::_String_base_types<char,std::allocator<char> > >::~_String_alloc<0,std::_String_base_types<char,std::allocator<char> > >
PUBLIC	?_Alloc_proxy@?$_String_alloc@$0A@U?$_String_base_types@DV?$allocator@D@std@@@std@@@std@@QAEXXZ ; std::_String_alloc<0,std::_String_base_types<char,std::allocator<char> > >::_Alloc_proxy
PUBLIC	?_Free_proxy@?$_String_alloc@$0A@U?$_String_base_types@DV?$allocator@D@std@@@std@@@std@@QAEXXZ ; std::_String_alloc<0,std::_String_base_types<char,std::allocator<char> > >::_Free_proxy
PUBLIC	?_Getal@?$_String_alloc@$0A@U?$_String_base_types@DV?$allocator@D@std@@@std@@@std@@QBE?AU?$_Wrap_alloc@V?$allocator@D@std@@@2@XZ ; std::_String_alloc<0,std::_String_base_types<char,std::allocator<char> > >::_Getal
PUBLIC	??0?$basic_string@DU?$char_traits@D@std@@V?$allocator@D@2@@std@@QAE@PBD@Z ; std::basic_string<char,std::char_traits<char>,std::allocator<char> >::basic_string<char,std::char_traits<char>,std::allocator<char> >
PUBLIC	?assign@?$basic_string@DU?$char_traits@D@std@@V?$allocator@D@2@@std@@QAEAAV12@ABV12@II@Z ; std::basic_string<char,std::char_traits<char>,std::allocator<char> >::assign
PUBLIC	?assign@?$basic_string@DU?$char_traits@D@std@@V?$allocator@D@2@@std@@QAEAAV12@PBDI@Z ; std::basic_string<char,std::char_traits<char>,std::allocator<char> >::assign
PUBLIC	?assign@?$basic_string@DU?$char_traits@D@std@@V?$allocator@D@2@@std@@QAEAAV12@PBD@Z ; std::basic_string<char,std::char_traits<char>,std::allocator<char> >::assign
PUBLIC	?erase@?$basic_string@DU?$char_traits@D@std@@V?$allocator@D@2@@std@@QAEAAV12@I@Z ; std::basic_string<char,std::char_traits<char>,std::allocator<char> >::erase
PUBLIC	?erase@?$basic_string@DU?$char_traits@D@std@@V?$allocator@D@2@@std@@QAEAAV12@II@Z ; std::basic_string<char,std::char_traits<char>,std::allocator<char> >::erase
PUBLIC	?size@?$basic_string@DU?$char_traits@D@std@@V?$allocator@D@2@@std@@QBEIXZ ; std::basic_string<char,std::char_traits<char>,std::allocator<char> >::size
PUBLIC	?max_size@?$basic_string@DU?$char_traits@D@std@@V?$allocator@D@2@@std@@QBEIXZ ; std::basic_string<char,std::char_traits<char>,std::allocator<char> >::max_size
PUBLIC	?_Copy@?$basic_string@DU?$char_traits@D@std@@V?$allocator@D@2@@std@@QAEXII@Z ; std::basic_string<char,std::char_traits<char>,std::allocator<char> >::_Copy
PUBLIC	?_Eos@?$basic_string@DU?$char_traits@D@std@@V?$allocator@D@2@@std@@QAEXI@Z ; std::basic_string<char,std::char_traits<char>,std::allocator<char> >::_Eos
PUBLIC	?_Grow@?$basic_string@DU?$char_traits@D@std@@V?$allocator@D@2@@std@@QAE_NI_N@Z ; std::basic_string<char,std::char_traits<char>,std::allocator<char> >::_Grow
PUBLIC	?_Inside@?$basic_string@DU?$char_traits@D@std@@V?$allocator@D@2@@std@@QAE_NPBD@Z ; std::basic_string<char,std::char_traits<char>,std::allocator<char> >::_Inside
PUBLIC	?_Tidy@?$basic_string@DU?$char_traits@D@std@@V?$allocator@D@2@@std@@QAEX_NI@Z ; std::basic_string<char,std::char_traits<char>,std::allocator<char> >::_Tidy
PUBLIC	?_Xlen@?$basic_string@DU?$char_traits@D@std@@V?$allocator@D@2@@std@@QBEXXZ ; std::basic_string<char,std::char_traits<char>,std::allocator<char> >::_Xlen
PUBLIC	?_Xran@?$basic_string@DU?$char_traits@D@std@@V?$allocator@D@2@@std@@QBEXXZ ; std::basic_string<char,std::char_traits<char>,std::allocator<char> >::_Xran
PUBLIC	??$_Debug_pointer@D@std@@YAXPBDPB_WI@Z		; std::_Debug_pointer<char>
PUBLIC	?generic_category@std@@YAABVerror_category@1@XZ	; std::generic_category
PUBLIC	?system_category@std@@YAABVerror_category@1@XZ	; std::system_category
PUBLIC	??0error_category@std@@QAE@XZ			; std::error_category::error_category
PUBLIC	??1error_category@std@@UAE@XZ			; std::error_category::~error_category
PUBLIC	?default_error_condition@error_category@std@@UBE?AVerror_condition@2@H@Z ; std::error_category::default_error_condition
PUBLIC	?equivalent@error_category@std@@UBE_NHABVerror_condition@2@@Z ; std::error_category::equivalent
PUBLIC	?equivalent@error_category@std@@UBE_NABVerror_code@2@H@Z ; std::error_category::equivalent
PUBLIC	??8error_category@std@@QBE_NABV01@@Z		; std::error_category::operator==
PUBLIC	??_Gerror_category@std@@UAEPAXI@Z		; std::error_category::`scalar deleting destructor'
PUBLIC	?value@error_code@std@@QBEHXZ			; std::error_code::value
PUBLIC	?category@error_code@std@@QBEABVerror_category@2@XZ ; std::error_code::category
PUBLIC	??0error_condition@std@@QAE@HABVerror_category@1@@Z ; std::error_condition::error_condition
PUBLIC	?value@error_condition@std@@QBEHXZ		; std::error_condition::value
PUBLIC	?category@error_condition@std@@QBEABVerror_category@2@XZ ; std::error_condition::category
PUBLIC	??8error_condition@std@@QBE_NABV01@@Z		; std::error_condition::operator==
PUBLIC	??0_Generic_error_category@std@@QAE@XZ		; std::_Generic_error_category::_Generic_error_category
PUBLIC	?name@_Generic_error_category@std@@UBEPBDXZ	; std::_Generic_error_category::name
PUBLIC	?message@_Generic_error_category@std@@UBE?AV?$basic_string@DU?$char_traits@D@std@@V?$allocator@D@2@@2@H@Z ; std::_Generic_error_category::message
PUBLIC	??1_Generic_error_category@std@@UAE@XZ		; std::_Generic_error_category::~_Generic_error_category
PUBLIC	??_G_Generic_error_category@std@@UAEPAXI@Z	; std::_Generic_error_category::`scalar deleting destructor'
PUBLIC	??0_Iostream_error_category@std@@QAE@XZ		; std::_Iostream_error_category::_Iostream_error_category
PUBLIC	?name@_Iostream_error_category@std@@UBEPBDXZ	; std::_Iostream_error_category::name
PUBLIC	?message@_Iostream_error_category@std@@UBE?AV?$basic_string@DU?$char_traits@D@std@@V?$allocator@D@2@@2@H@Z ; std::_Iostream_error_category::message
PUBLIC	??1_Iostream_error_category@std@@UAE@XZ		; std::_Iostream_error_category::~_Iostream_error_category
PUBLIC	??_G_Iostream_error_category@std@@UAEPAXI@Z	; std::_Iostream_error_category::`scalar deleting destructor'
PUBLIC	??0_System_error_category@std@@QAE@XZ		; std::_System_error_category::_System_error_category
PUBLIC	?name@_System_error_category@std@@UBEPBDXZ	; std::_System_error_category::name
PUBLIC	?message@_System_error_category@std@@UBE?AV?$basic_string@DU?$char_traits@D@std@@V?$allocator@D@2@@2@H@Z ; std::_System_error_category::message
PUBLIC	?default_error_condition@_System_error_category@std@@UBE?AVerror_condition@2@H@Z ; std::_System_error_category::default_error_condition
PUBLIC	??1_System_error_category@std@@UAE@XZ		; std::_System_error_category::~_System_error_category
PUBLIC	??_G_System_error_category@std@@UAEPAXI@Z	; std::_System_error_category::`scalar deleting destructor'
PUBLIC	??0SlaveInformation@@QAE@W4regType@@J@Z		; SlaveInformation::SlaveInformation
PUBLIC	??0uValue@@QAE@K@Z				; uValue::uValue
PUBLIC	??_FuValue@@QAEXXZ				; uValue::`default constructor closure'
PUBLIC	??0BskzhDevice@@QAE@GG@Z			; BskzhDevice::BskzhDevice
PUBLIC	??1BskzhDevice@@UAE@XZ				; BskzhDevice::~BskzhDevice
PUBLIC	?getVal@BskzhDevice@@UAEIPAVProperty@@@Z	; BskzhDevice::getVal
PUBLIC	?setVal@BskzhDevice@@UAEIPAVProperty@@@Z	; BskzhDevice::setVal
PUBLIC	??_GBskzhDevice@@UAEPAXI@Z			; BskzhDevice::`scalar deleting destructor'
PUBLIC	??0X304Device@@QAE@GG@Z				; X304Device::X304Device
PUBLIC	??1X304Device@@UAE@XZ				; X304Device::~X304Device
PUBLIC	?getVal@X304Device@@UAEIPAVProperty@@@Z		; X304Device::getVal
PUBLIC	?setVal@X304Device@@UAEIPAVProperty@@@Z		; X304Device::setVal
PUBLIC	?loadSavedCountsFromEEPROM@X304Device@@QAEXXZ	; X304Device::loadSavedCountsFromEEPROM
PUBLIC	?saveCountsToEEPROM@X304Device@@QAEXPAVProperty@@@Z ; X304Device::saveCountsToEEPROM
PUBLIC	??_GX304Device@@UAEPAXI@Z			; X304Device::`scalar deleting destructor'
PUBLIC	??0I7002Device@@QAE@GG@Z			; I7002Device::I7002Device
PUBLIC	??1I7002Device@@UAE@XZ				; I7002Device::~I7002Device
PUBLIC	?getVal@I7002Device@@UAEIPAVProperty@@@Z	; I7002Device::getVal
PUBLIC	?setVal@I7002Device@@UAEIPAVProperty@@@Z	; I7002Device::setVal
PUBLIC	??_GI7002Device@@UAEPAXI@Z			; I7002Device::`scalar deleting destructor'
PUBLIC	??0I7041Device@@QAE@GG@Z			; I7041Device::I7041Device
PUBLIC	??1I7041Device@@UAE@XZ				; I7041Device::~I7041Device
PUBLIC	?getVal@I7041Device@@UAEIPAVProperty@@@Z	; I7041Device::getVal
PUBLIC	?setVal@I7041Device@@UAEIPAVProperty@@@Z	; I7041Device::setVal
PUBLIC	??_GI7041Device@@UAEPAXI@Z			; I7041Device::`scalar deleting destructor'
PUBLIC	??$construct@PADAAPAD@?$_Wrap_alloc@V?$allocator@D@std@@@std@@QAEXPAPADAAPAD@Z ; std::_Wrap_alloc<std::allocator<char> >::construct<char *,char * &>
PUBLIC	??$destroy@PAD@?$_Wrap_alloc@V?$allocator@D@std@@@std@@QAEXPAPAD@Z ; std::_Wrap_alloc<std::allocator<char> >::destroy<char *>
PUBLIC	??$addressof@D@std@@YAPADAAD@Z			; std::addressof<char>
PUBLIC	??0?$allocator@U_Container_proxy@std@@@std@@QAE@XZ ; std::allocator<std::_Container_proxy>::allocator<std::_Container_proxy>
PUBLIC	?deallocate@?$allocator@U_Container_proxy@std@@@std@@QAEXPAU_Container_proxy@2@I@Z ; std::allocator<std::_Container_proxy>::deallocate
PUBLIC	?allocate@?$allocator@U_Container_proxy@std@@@std@@QAEPAU_Container_proxy@2@I@Z ; std::allocator<std::_Container_proxy>::allocate
PUBLIC	??$construct@U_Container_proxy@std@@U12@@?$allocator@U_Container_proxy@std@@@std@@QAEXPAU_Container_proxy@1@$$QAU21@@Z ; std::allocator<std::_Container_proxy>::construct<std::_Container_proxy,std::_Container_proxy>
PUBLIC	??$destroy@U_Container_proxy@std@@@?$allocator@U_Container_proxy@std@@@std@@QAEXPAU_Container_proxy@1@@Z ; std::allocator<std::_Container_proxy>::destroy<std::_Container_proxy>
PUBLIC	??$_Allocate@U_Container_proxy@std@@@std@@YAPAU_Container_proxy@0@IPAU10@@Z ; std::_Allocate<std::_Container_proxy>
PUBLIC	??$_Allocate@D@std@@YAPADIPAD@Z			; std::_Allocate<char>
PUBLIC	??$forward@AAPAD@std@@YAAAPADAAPAD@Z		; std::forward<char * &>
PUBLIC	??$construct@PADAAPAD@?$allocator_traits@V?$allocator@D@std@@@std@@SAXAAV?$allocator@D@1@PAPADAAPAD@Z ; std::allocator_traits<std::allocator<char> >::construct<char *,char * &>
PUBLIC	??$destroy@PAD@?$allocator_traits@V?$allocator@D@std@@@std@@SAXAAV?$allocator@D@1@PAPAD@Z ; std::allocator_traits<std::allocator<char> >::destroy<char *>
PUBLIC	??$forward@U_Container_proxy@std@@@std@@YA$$QAU_Container_proxy@0@AAU10@@Z ; std::forward<std::_Container_proxy>
PUBLIC	??$construct@PADAAPAD@?$allocator@D@std@@QAEXPAPADAAPAD@Z ; std::allocator<char>::construct<char *,char * &>
PUBLIC	??$destroy@PAD@?$allocator@D@std@@QAEXPAPAD@Z	; std::allocator<char>::destroy<char *>
PUBLIC	??_7error_category@std@@6B@			; std::error_category::`vftable'
PUBLIC	??_7_Generic_error_category@std@@6B@		; std::_Generic_error_category::`vftable'
PUBLIC	??_C@_07DCLBNMLN@generic?$AA@			; `string'
PUBLIC	??_C@_0O@BFJCFAAK@unknown?5error?$AA@		; `string'
PUBLIC	??_7_Iostream_error_category@std@@6B@		; std::_Iostream_error_category::`vftable'
PUBLIC	??_C@_08LLGCOLLL@iostream?$AA@			; `string'
PUBLIC	??_C@_0BG@PADBLCHM@iostream?5stream?5error?$AA@	; `string'
PUBLIC	??_7_System_error_category@std@@6B@		; std::_System_error_category::`vftable'
PUBLIC	??_C@_06FHFOAHML@system?$AA@			; `string'
PUBLIC	?_Generic_object@?$_Error_objects@H@std@@2V_Generic_error_category@2@A ; std::_Error_objects<int>::_Generic_object
PUBLIC	?_Iostream_object@?$_Error_objects@H@std@@2V_Iostream_error_category@2@A ; std::_Error_objects<int>::_Iostream_object
PUBLIC	?_System_object@?$_Error_objects@H@std@@2V_System_error_category@2@A ; std::_Error_objects<int>::_System_object
PUBLIC	??_7BskzhDevice@@6B@				; BskzhDevice::`vftable'
PUBLIC	??_7X304Device@@6B@				; X304Device::`vftable'
PUBLIC	??_7I7002Device@@6B@				; I7002Device::`vftable'
PUBLIC	??_7I7041Device@@6B@				; I7041Device::`vftable'
PUBLIC	??_C@_05GGIAPBHH@BSKZH?$AA@			; `string'
PUBLIC	??_C@_09KPBEDMKF@?$CFs?5ch?3?5?$CFd?$AA@	; `string'
PUBLIC	??_C@_04EMGBMNMA@X304?$AA@			; `string'
PUBLIC	??_C@_0BA@HOEGDEMG@tmp_x304ch?4b_?$CFd?$AA@	; `string'
PUBLIC	??_C@_02JDPG@rb?$AA@				; `string'
PUBLIC	??_C@_02GMLFBBN@wb?$AA@				; `string'
PUBLIC	??_C@_05EMFLCICO@I7002?$AA@			; `string'
PUBLIC	??_C@_05GAHPNDDB@I7041?$AA@			; `string'
PUBLIC	??_C@_1IO@BLKJFPEG@?$AAc?$AA?3?$AA?2?$AAp?$AAr?$AAo?$AAg?$AAr?$AAa?$AAm?$AA?5?$AAf?$AAi?$AAl?$AAe?$AAs?$AA?5?$AA?$CI?$AAx?$AA8?$AA6?$AA?$CJ?$AA?2?$AAm?$AAi?$AAc?$AAr?$AAo?$AAs?$AAo?$AAf?$AAt@ ; `string'
PUBLIC	??_C@_0BI@CFPLBAOH@invalid?5string?5position?$AA@ ; `string'
PUBLIC	??_C@_0BA@JFNIOLAK@string?5too?5long?$AA@	; `string'
PUBLIC	??_C@_1CK@EOPGIILJ@?$AAi?$AAn?$AAv?$AAa?$AAl?$AAi?$AAd?$AA?5?$AAn?$AAu?$AAl?$AAl?$AA?5?$AAp?$AAo?$AAi?$AAn?$AAt?$AAe?$AAr?$AA?$AA@ ; `string'
PUBLIC	??_R4error_category@std@@6B@			; std::error_category::`RTTI Complete Object Locator'
PUBLIC	??_R0?AVerror_category@std@@@8			; std::error_category `RTTI Type Descriptor'
PUBLIC	??_R3error_category@std@@8			; std::error_category::`RTTI Class Hierarchy Descriptor'
PUBLIC	??_R2error_category@std@@8			; std::error_category::`RTTI Base Class Array'
PUBLIC	??_R1A@?0A@EA@error_category@std@@8		; std::error_category::`RTTI Base Class Descriptor at (0,-1,0,64)'
PUBLIC	??_R4_Generic_error_category@std@@6B@		; std::_Generic_error_category::`RTTI Complete Object Locator'
PUBLIC	??_R0?AV_Generic_error_category@std@@@8		; std::_Generic_error_category `RTTI Type Descriptor'
PUBLIC	??_R3_Generic_error_category@std@@8		; std::_Generic_error_category::`RTTI Class Hierarchy Descriptor'
PUBLIC	??_R2_Generic_error_category@std@@8		; std::_Generic_error_category::`RTTI Base Class Array'
PUBLIC	??_R1A@?0A@EA@_Generic_error_category@std@@8	; std::_Generic_error_category::`RTTI Base Class Descriptor at (0,-1,0,64)'
PUBLIC	??_R4_Iostream_error_category@std@@6B@		; std::_Iostream_error_category::`RTTI Complete Object Locator'
PUBLIC	??_R0?AV_Iostream_error_category@std@@@8	; std::_Iostream_error_category `RTTI Type Descriptor'
PUBLIC	??_R3_Iostream_error_category@std@@8		; std::_Iostream_error_category::`RTTI Class Hierarchy Descriptor'
PUBLIC	??_R2_Iostream_error_category@std@@8		; std::_Iostream_error_category::`RTTI Base Class Array'
PUBLIC	??_R1A@?0A@EA@_Iostream_error_category@std@@8	; std::_Iostream_error_category::`RTTI Base Class Descriptor at (0,-1,0,64)'
PUBLIC	??_R4_System_error_category@std@@6B@		; std::_System_error_category::`RTTI Complete Object Locator'
PUBLIC	??_R0?AV_System_error_category@std@@@8		; std::_System_error_category `RTTI Type Descriptor'
PUBLIC	??_R3_System_error_category@std@@8		; std::_System_error_category::`RTTI Class Hierarchy Descriptor'
PUBLIC	??_R2_System_error_category@std@@8		; std::_System_error_category::`RTTI Base Class Array'
PUBLIC	??_R1A@?0A@EA@_System_error_category@std@@8	; std::_System_error_category::`RTTI Base Class Descriptor at (0,-1,0,64)'
PUBLIC	??_R4BskzhDevice@@6B@				; BskzhDevice::`RTTI Complete Object Locator'
PUBLIC	??_R0?AVBskzhDevice@@@8				; BskzhDevice `RTTI Type Descriptor'
PUBLIC	??_R3BskzhDevice@@8				; BskzhDevice::`RTTI Class Hierarchy Descriptor'
PUBLIC	??_R2BskzhDevice@@8				; BskzhDevice::`RTTI Base Class Array'
PUBLIC	??_R1A@?0A@EA@BskzhDevice@@8			; BskzhDevice::`RTTI Base Class Descriptor at (0,-1,0,64)'
PUBLIC	??_R1A@?0A@EA@AbstractDevice@@8			; AbstractDevice::`RTTI Base Class Descriptor at (0,-1,0,64)'
PUBLIC	??_R0?AVAbstractDevice@@@8			; AbstractDevice `RTTI Type Descriptor'
PUBLIC	??_R3AbstractDevice@@8				; AbstractDevice::`RTTI Class Hierarchy Descriptor'
PUBLIC	??_R2AbstractDevice@@8				; AbstractDevice::`RTTI Base Class Array'
PUBLIC	??_R4X304Device@@6B@				; X304Device::`RTTI Complete Object Locator'
PUBLIC	??_R0?AVX304Device@@@8				; X304Device `RTTI Type Descriptor'
PUBLIC	??_R3X304Device@@8				; X304Device::`RTTI Class Hierarchy Descriptor'
PUBLIC	??_R2X304Device@@8				; X304Device::`RTTI Base Class Array'
PUBLIC	??_R1A@?0A@EA@X304Device@@8			; X304Device::`RTTI Base Class Descriptor at (0,-1,0,64)'
PUBLIC	??_R4I7002Device@@6B@				; I7002Device::`RTTI Complete Object Locator'
PUBLIC	??_R0?AVI7002Device@@@8				; I7002Device `RTTI Type Descriptor'
PUBLIC	??_R3I7002Device@@8				; I7002Device::`RTTI Class Hierarchy Descriptor'
PUBLIC	??_R2I7002Device@@8				; I7002Device::`RTTI Base Class Array'
PUBLIC	??_R1A@?0A@EA@I7002Device@@8			; I7002Device::`RTTI Base Class Descriptor at (0,-1,0,64)'
PUBLIC	??_R4I7041Device@@6B@				; I7041Device::`RTTI Complete Object Locator'
PUBLIC	??_R0?AVI7041Device@@@8				; I7041Device `RTTI Type Descriptor'
PUBLIC	??_R3I7041Device@@8				; I7041Device::`RTTI Class Hierarchy Descriptor'
PUBLIC	??_R2I7041Device@@8				; I7041Device::`RTTI Base Class Array'
PUBLIC	??_R1A@?0A@EA@I7041Device@@8			; I7041Device::`RTTI Base Class Descriptor at (0,-1,0,64)'
PUBLIC	__real@40f0000000000000
PUBLIC	__real@416312d000000000
PUBLIC	__real@41f0000000000000
PUBLIC	__real@447a0000
EXTRN	__purecall:PROC
EXTRN	??2@YAPAXI@Z:PROC				; operator new
EXTRN	??3@YAXPAX@Z:PROC				; operator delete
EXTRN	_atexit:PROC
EXTRN	__imp__fclose:PROC
EXTRN	__imp__fopen:PROC
EXTRN	__imp__fread:PROC
EXTRN	__imp__fwrite:PROC
EXTRN	__imp__sprintf:PROC
EXTRN	_memcpy:PROC
EXTRN	_memset:PROC
EXTRN	_strlen:PROC
EXTRN	__imp__memmove:PROC
EXTRN	__imp_?_Debug_message@std@@YAXPB_W0I@Z:PROC
EXTRN	__imp_??0_Container_base12@std@@QAE@XZ:PROC
EXTRN	__imp_??1_Container_base12@std@@QAE@XZ:PROC
EXTRN	__imp_?_Orphan_all@_Container_base12@std@@QAEXXZ:PROC
EXTRN	__imp_?_Xbad_alloc@std@@YAXXZ:PROC
EXTRN	__imp_?_Xlength_error@std@@YAXPBD@Z:PROC
EXTRN	__imp_?_Xout_of_range@std@@YAXPBD@Z:PROC
EXTRN	??_Eerror_category@std@@UAEPAXI@Z:PROC		; std::error_category::`vector deleting destructor'
EXTRN	__imp_?_Syserror_map@std@@YAPBDH@Z:PROC
EXTRN	__imp_?_Winerror_map@std@@YAPBDH@Z:PROC
EXTRN	??_E_Generic_error_category@std@@UAEPAXI@Z:PROC	; std::_Generic_error_category::`vector deleting destructor'
EXTRN	??_E_Iostream_error_category@std@@UAEPAXI@Z:PROC ; std::_Iostream_error_category::`vector deleting destructor'
EXTRN	??_E_System_error_category@std@@UAEPAXI@Z:PROC	; std::_System_error_category::`vector deleting destructor'
EXTRN	??0AbstractDevice@@IAE@FGG@Z:PROC		; AbstractDevice::AbstractDevice
EXTRN	??1AbstractDevice@@UAE@XZ:PROC			; AbstractDevice::~AbstractDevice
EXTRN	?getAddress@AbstractDevice@@QAEGXZ:PROC		; AbstractDevice::getAddress
EXTRN	??_EBskzhDevice@@UAEPAXI@Z:PROC			; BskzhDevice::`vector deleting destructor'
EXTRN	??_EX304Device@@UAEPAXI@Z:PROC			; X304Device::`vector deleting destructor'
EXTRN	??_EI7002Device@@UAEPAXI@Z:PROC			; I7002Device::`vector deleting destructor'
EXTRN	??_EI7041Device@@UAEPAXI@Z:PROC			; I7041Device::`vector deleting destructor'
EXTRN	?getValueBool@Property@@QAE?AW4bool_t@@XZ:PROC	; Property::getValueBool
EXTRN	?setValueFloat@Property@@QAEXM@Z:PROC		; Property::setValueFloat
EXTRN	?setValueInt@Property@@QAEXF@Z:PROC		; Property::setValueInt
EXTRN	?setValueUnsignedLong@Property@@QAEXK@Z:PROC	; Property::setValueUnsignedLong
EXTRN	?setValueBool@Property@@QAEXW4bool_t@@@Z:PROC	; Property::setValueBool
EXTRN	?getNativeValue@Property@@QAEPAXXZ:PROC		; Property::getNativeValue
EXTRN	??0BskzhMass1Property@@QAE@XZ:PROC		; BskzhMass1Property::BskzhMass1Property
EXTRN	??0BskzhMass2Property@@QAE@XZ:PROC		; BskzhMass2Property::BskzhMass2Property
EXTRN	??0X304AnalogProperty@@QAE@F@Z:PROC		; X304AnalogProperty::X304AnalogProperty
EXTRN	??0X304DiscreteProperty@@QAE@F@Z:PROC		; X304DiscreteProperty::X304DiscreteProperty
EXTRN	??0X304DiscreteOutputProperty@@QAE@F@Z:PROC	; X304DiscreteOutputProperty::X304DiscreteOutputProperty
EXTRN	??0I7002DiscreteInputProperty@@QAE@F@Z:PROC	; I7002DiscreteInputProperty::I7002DiscreteInputProperty
EXTRN	??0I7002DiscreteOutputProperty@@QAE@F@Z:PROC	; I7002DiscreteOutputProperty::I7002DiscreteOutputProperty
EXTRN	??0I7002AnalogProperty@@QAE@F@Z:PROC		; I7002AnalogProperty::I7002AnalogProperty
EXTRN	??0I7041DiscreteProperty@@QAE@F@Z:PROC		; I7041DiscreteProperty::I7041DiscreteProperty
EXTRN	??0ErrorProperty@@QAE@XZ:PROC			; ErrorProperty::ErrorProperty
EXTRN	?setCoils@SlaveFactory@@QAEXUSlaveInformation@@ABTuValue@@@Z:PROC ; SlaveFactory::setCoils
EXTRN	?setInputRegisters@SlaveFactory@@QAEXUSlaveInformation@@ABTuValue@@@Z:PROC ; SlaveFactory::setInputRegisters
EXTRN	?getDisreteInput@SlaveFactory@@QAE?ATuValue@@USlaveInformation@@I@Z:PROC ; SlaveFactory::getDisreteInput
EXTRN	?getCoils@SlaveFactory@@QAE?ATuValue@@USlaveInformation@@I@Z:PROC ; SlaveFactory::getCoils
EXTRN	?getInputRegisters@SlaveFactory@@QAE?ATuValue@@USlaveInformation@@I@Z:PROC ; SlaveFactory::getInputRegisters
EXTRN	?getHoldingRegisters@SlaveFactory@@QAE?ATuValue@@USlaveInformation@@I@Z:PROC ; SlaveFactory::getHoldingRegisters
EXTRN	?GetTimeTicks@@YA_JXZ:PROC			; GetTimeTicks
EXTRN	?ModbusRTU_Master@@YAHHHHHHHHH@Z:PROC		; ModbusRTU_Master
EXTRN	?X304_AnalogIn@@YAMH@Z:PROC			; X304_AnalogIn
EXTRN	?X304_DigitalIn@@YAGXZ:PROC			; X304_DigitalIn
EXTRN	?X304_Init@@YAGXZ:PROC				; X304_Init
EXTRN	?X304_Read_All_DO@@YAGXZ:PROC			; X304_Read_All_DO
EXTRN	?X304_Write_All_DO@@YAXI@Z:PROC			; X304_Write_All_DO
EXTRN	?pow_2@@YAKH@Z:PROC				; pow_2
EXTRN	@_RTC_CheckStackVars@8:PROC
EXTRN	@__security_check_cookie@4:PROC
EXTRN	__CxxThrowException@8:PROC
EXTRN	__RTC_CheckEsp:PROC
EXTRN	__RTC_InitBase:PROC
EXTRN	__RTC_Shutdown:PROC
EXTRN	___CxxFrameHandler3:PROC
EXTRN	??_7type_info@@6B@:QWORD			; type_info::`vftable'
EXTRN	___security_cookie:DWORD
EXTRN	__fltused:DWORD
_BSS	SEGMENT
_piecewise_construct DB 01H DUP (?)
_allocator_arg DB 01H DUP (?)
_BSS	ENDS
;	COMDAT ?_Generic_object@?$_Error_objects@H@std@@2V_Generic_error_category@2@A
_BSS	SEGMENT
?_Generic_object@?$_Error_objects@H@std@@2V_Generic_error_category@2@A DD 01H DUP (?) ; std::_Error_objects<int>::_Generic_object
_BSS	ENDS
;	COMDAT ?_Iostream_object@?$_Error_objects@H@std@@2V_Iostream_error_category@2@A
_BSS	SEGMENT
?_Iostream_object@?$_Error_objects@H@std@@2V_Iostream_error_category@2@A DD 01H DUP (?) ; std::_Error_objects<int>::_Iostream_object
_BSS	ENDS
;	COMDAT ?_System_object@?$_Error_objects@H@std@@2V_System_error_category@2@A
_BSS	SEGMENT
?_System_object@?$_Error_objects@H@std@@2V_System_error_category@2@A DD 01H DUP (?) ; std::_Error_objects<int>::_System_object
_BSS	ENDS
CRT$XCU	SEGMENT
_piecewise_construct$initializer$ DD FLAT:??__Epiecewise_construct@std@@YAXXZ
CRT$XCU	ENDS
;	COMDAT __real@447a0000
CONST	SEGMENT
__real@447a0000 DD 0447a0000r			; 1000
CONST	ENDS
;	COMDAT __real@41f0000000000000
CONST	SEGMENT
__real@41f0000000000000 DQ 041f0000000000000r	; 4.29497e+009
CONST	ENDS
;	COMDAT __real@416312d000000000
CONST	SEGMENT
__real@416312d000000000 DQ 0416312d000000000r	; 1e+007
CONST	ENDS
;	COMDAT __real@40f0000000000000
CONST	SEGMENT
__real@40f0000000000000 DQ 040f0000000000000r	; 65536
CONST	ENDS
;	COMDAT rtc$TMZ
rtc$TMZ	SEGMENT
__RTC_Shutdown.rtc$TMZ DD FLAT:__RTC_Shutdown
rtc$TMZ	ENDS
;	COMDAT rtc$IMZ
rtc$IMZ	SEGMENT
__RTC_InitBase.rtc$IMZ DD FLAT:__RTC_InitBase
rtc$IMZ	ENDS
;	COMDAT ??_R1A@?0A@EA@I7041Device@@8
rdata$r	SEGMENT
??_R1A@?0A@EA@I7041Device@@8 DD FLAT:??_R0?AVI7041Device@@@8 ; I7041Device::`RTTI Base Class Descriptor at (0,-1,0,64)'
	DD	01H
	DD	00H
	DD	0ffffffffH
	DD	00H
	DD	040H
	DD	FLAT:??_R3I7041Device@@8
rdata$r	ENDS
;	COMDAT ??_R2I7041Device@@8
rdata$r	SEGMENT
??_R2I7041Device@@8 DD FLAT:??_R1A@?0A@EA@I7041Device@@8 ; I7041Device::`RTTI Base Class Array'
	DD	FLAT:??_R1A@?0A@EA@AbstractDevice@@8
rdata$r	ENDS
;	COMDAT ??_R3I7041Device@@8
rdata$r	SEGMENT
??_R3I7041Device@@8 DD 00H				; I7041Device::`RTTI Class Hierarchy Descriptor'
	DD	00H
	DD	02H
	DD	FLAT:??_R2I7041Device@@8
rdata$r	ENDS
;	COMDAT ??_R0?AVI7041Device@@@8
_DATA	SEGMENT
??_R0?AVI7041Device@@@8 DD FLAT:??_7type_info@@6B@	; I7041Device `RTTI Type Descriptor'
	DD	00H
	DB	'.?AVI7041Device@@', 00H
_DATA	ENDS
;	COMDAT ??_R4I7041Device@@6B@
rdata$r	SEGMENT
??_R4I7041Device@@6B@ DD 00H				; I7041Device::`RTTI Complete Object Locator'
	DD	00H
	DD	00H
	DD	FLAT:??_R0?AVI7041Device@@@8
	DD	FLAT:??_R3I7041Device@@8
rdata$r	ENDS
;	COMDAT ??_R1A@?0A@EA@I7002Device@@8
rdata$r	SEGMENT
??_R1A@?0A@EA@I7002Device@@8 DD FLAT:??_R0?AVI7002Device@@@8 ; I7002Device::`RTTI Base Class Descriptor at (0,-1,0,64)'
	DD	01H
	DD	00H
	DD	0ffffffffH
	DD	00H
	DD	040H
	DD	FLAT:??_R3I7002Device@@8
rdata$r	ENDS
;	COMDAT ??_R2I7002Device@@8
rdata$r	SEGMENT
??_R2I7002Device@@8 DD FLAT:??_R1A@?0A@EA@I7002Device@@8 ; I7002Device::`RTTI Base Class Array'
	DD	FLAT:??_R1A@?0A@EA@AbstractDevice@@8
rdata$r	ENDS
;	COMDAT ??_R3I7002Device@@8
rdata$r	SEGMENT
??_R3I7002Device@@8 DD 00H				; I7002Device::`RTTI Class Hierarchy Descriptor'
	DD	00H
	DD	02H
	DD	FLAT:??_R2I7002Device@@8
rdata$r	ENDS
;	COMDAT ??_R0?AVI7002Device@@@8
_DATA	SEGMENT
??_R0?AVI7002Device@@@8 DD FLAT:??_7type_info@@6B@	; I7002Device `RTTI Type Descriptor'
	DD	00H
	DB	'.?AVI7002Device@@', 00H
_DATA	ENDS
;	COMDAT ??_R4I7002Device@@6B@
rdata$r	SEGMENT
??_R4I7002Device@@6B@ DD 00H				; I7002Device::`RTTI Complete Object Locator'
	DD	00H
	DD	00H
	DD	FLAT:??_R0?AVI7002Device@@@8
	DD	FLAT:??_R3I7002Device@@8
rdata$r	ENDS
;	COMDAT ??_R1A@?0A@EA@X304Device@@8
rdata$r	SEGMENT
??_R1A@?0A@EA@X304Device@@8 DD FLAT:??_R0?AVX304Device@@@8 ; X304Device::`RTTI Base Class Descriptor at (0,-1,0,64)'
	DD	01H
	DD	00H
	DD	0ffffffffH
	DD	00H
	DD	040H
	DD	FLAT:??_R3X304Device@@8
rdata$r	ENDS
;	COMDAT ??_R2X304Device@@8
rdata$r	SEGMENT
??_R2X304Device@@8 DD FLAT:??_R1A@?0A@EA@X304Device@@8	; X304Device::`RTTI Base Class Array'
	DD	FLAT:??_R1A@?0A@EA@AbstractDevice@@8
rdata$r	ENDS
;	COMDAT ??_R3X304Device@@8
rdata$r	SEGMENT
??_R3X304Device@@8 DD 00H				; X304Device::`RTTI Class Hierarchy Descriptor'
	DD	00H
	DD	02H
	DD	FLAT:??_R2X304Device@@8
rdata$r	ENDS
;	COMDAT ??_R0?AVX304Device@@@8
_DATA	SEGMENT
??_R0?AVX304Device@@@8 DD FLAT:??_7type_info@@6B@	; X304Device `RTTI Type Descriptor'
	DD	00H
	DB	'.?AVX304Device@@', 00H
_DATA	ENDS
;	COMDAT ??_R4X304Device@@6B@
rdata$r	SEGMENT
??_R4X304Device@@6B@ DD 00H				; X304Device::`RTTI Complete Object Locator'
	DD	00H
	DD	00H
	DD	FLAT:??_R0?AVX304Device@@@8
	DD	FLAT:??_R3X304Device@@8
rdata$r	ENDS
;	COMDAT ??_R2AbstractDevice@@8
rdata$r	SEGMENT
??_R2AbstractDevice@@8 DD FLAT:??_R1A@?0A@EA@AbstractDevice@@8 ; AbstractDevice::`RTTI Base Class Array'
rdata$r	ENDS
;	COMDAT ??_R3AbstractDevice@@8
rdata$r	SEGMENT
??_R3AbstractDevice@@8 DD 00H				; AbstractDevice::`RTTI Class Hierarchy Descriptor'
	DD	00H
	DD	01H
	DD	FLAT:??_R2AbstractDevice@@8
rdata$r	ENDS
;	COMDAT ??_R0?AVAbstractDevice@@@8
_DATA	SEGMENT
??_R0?AVAbstractDevice@@@8 DD FLAT:??_7type_info@@6B@	; AbstractDevice `RTTI Type Descriptor'
	DD	00H
	DB	'.?AVAbstractDevice@@', 00H
_DATA	ENDS
;	COMDAT ??_R1A@?0A@EA@AbstractDevice@@8
rdata$r	SEGMENT
??_R1A@?0A@EA@AbstractDevice@@8 DD FLAT:??_R0?AVAbstractDevice@@@8 ; AbstractDevice::`RTTI Base Class Descriptor at (0,-1,0,64)'
	DD	00H
	DD	00H
	DD	0ffffffffH
	DD	00H
	DD	040H
	DD	FLAT:??_R3AbstractDevice@@8
rdata$r	ENDS
;	COMDAT ??_R1A@?0A@EA@BskzhDevice@@8
rdata$r	SEGMENT
??_R1A@?0A@EA@BskzhDevice@@8 DD FLAT:??_R0?AVBskzhDevice@@@8 ; BskzhDevice::`RTTI Base Class Descriptor at (0,-1,0,64)'
	DD	01H
	DD	00H
	DD	0ffffffffH
	DD	00H
	DD	040H
	DD	FLAT:??_R3BskzhDevice@@8
rdata$r	ENDS
;	COMDAT ??_R2BskzhDevice@@8
rdata$r	SEGMENT
??_R2BskzhDevice@@8 DD FLAT:??_R1A@?0A@EA@BskzhDevice@@8 ; BskzhDevice::`RTTI Base Class Array'
	DD	FLAT:??_R1A@?0A@EA@AbstractDevice@@8
rdata$r	ENDS
;	COMDAT ??_R3BskzhDevice@@8
rdata$r	SEGMENT
??_R3BskzhDevice@@8 DD 00H				; BskzhDevice::`RTTI Class Hierarchy Descriptor'
	DD	00H
	DD	02H
	DD	FLAT:??_R2BskzhDevice@@8
rdata$r	ENDS
;	COMDAT ??_R0?AVBskzhDevice@@@8
_DATA	SEGMENT
??_R0?AVBskzhDevice@@@8 DD FLAT:??_7type_info@@6B@	; BskzhDevice `RTTI Type Descriptor'
	DD	00H
	DB	'.?AVBskzhDevice@@', 00H
_DATA	ENDS
;	COMDAT ??_R4BskzhDevice@@6B@
rdata$r	SEGMENT
??_R4BskzhDevice@@6B@ DD 00H				; BskzhDevice::`RTTI Complete Object Locator'
	DD	00H
	DD	00H
	DD	FLAT:??_R0?AVBskzhDevice@@@8
	DD	FLAT:??_R3BskzhDevice@@8
rdata$r	ENDS
;	COMDAT ??_R1A@?0A@EA@_System_error_category@std@@8
rdata$r	SEGMENT
??_R1A@?0A@EA@_System_error_category@std@@8 DD FLAT:??_R0?AV_System_error_category@std@@@8 ; std::_System_error_category::`RTTI Base Class Descriptor at (0,-1,0,64)'
	DD	02H
	DD	00H
	DD	0ffffffffH
	DD	00H
	DD	040H
	DD	FLAT:??_R3_System_error_category@std@@8
rdata$r	ENDS
;	COMDAT ??_R2_System_error_category@std@@8
rdata$r	SEGMENT
??_R2_System_error_category@std@@8 DD FLAT:??_R1A@?0A@EA@_System_error_category@std@@8 ; std::_System_error_category::`RTTI Base Class Array'
	DD	FLAT:??_R1A@?0A@EA@_Generic_error_category@std@@8
	DD	FLAT:??_R1A@?0A@EA@error_category@std@@8
rdata$r	ENDS
;	COMDAT ??_R3_System_error_category@std@@8
rdata$r	SEGMENT
??_R3_System_error_category@std@@8 DD 00H		; std::_System_error_category::`RTTI Class Hierarchy Descriptor'
	DD	00H
	DD	03H
	DD	FLAT:??_R2_System_error_category@std@@8
rdata$r	ENDS
;	COMDAT ??_R0?AV_System_error_category@std@@@8
_DATA	SEGMENT
??_R0?AV_System_error_category@std@@@8 DD FLAT:??_7type_info@@6B@ ; std::_System_error_category `RTTI Type Descriptor'
	DD	00H
	DB	'.?AV_System_error_category@std@@', 00H
_DATA	ENDS
;	COMDAT ??_R4_System_error_category@std@@6B@
rdata$r	SEGMENT
??_R4_System_error_category@std@@6B@ DD 00H		; std::_System_error_category::`RTTI Complete Object Locator'
	DD	00H
	DD	00H
	DD	FLAT:??_R0?AV_System_error_category@std@@@8
	DD	FLAT:??_R3_System_error_category@std@@8
rdata$r	ENDS
;	COMDAT ??_R1A@?0A@EA@_Iostream_error_category@std@@8
rdata$r	SEGMENT
??_R1A@?0A@EA@_Iostream_error_category@std@@8 DD FLAT:??_R0?AV_Iostream_error_category@std@@@8 ; std::_Iostream_error_category::`RTTI Base Class Descriptor at (0,-1,0,64)'
	DD	02H
	DD	00H
	DD	0ffffffffH
	DD	00H
	DD	040H
	DD	FLAT:??_R3_Iostream_error_category@std@@8
rdata$r	ENDS
;	COMDAT ??_R2_Iostream_error_category@std@@8
rdata$r	SEGMENT
??_R2_Iostream_error_category@std@@8 DD FLAT:??_R1A@?0A@EA@_Iostream_error_category@std@@8 ; std::_Iostream_error_category::`RTTI Base Class Array'
	DD	FLAT:??_R1A@?0A@EA@_Generic_error_category@std@@8
	DD	FLAT:??_R1A@?0A@EA@error_category@std@@8
rdata$r	ENDS
;	COMDAT ??_R3_Iostream_error_category@std@@8
rdata$r	SEGMENT
??_R3_Iostream_error_category@std@@8 DD 00H		; std::_Iostream_error_category::`RTTI Class Hierarchy Descriptor'
	DD	00H
	DD	03H
	DD	FLAT:??_R2_Iostream_error_category@std@@8
rdata$r	ENDS
;	COMDAT ??_R0?AV_Iostream_error_category@std@@@8
_DATA	SEGMENT
??_R0?AV_Iostream_error_category@std@@@8 DD FLAT:??_7type_info@@6B@ ; std::_Iostream_error_category `RTTI Type Descriptor'
	DD	00H
	DB	'.?AV_Iostream_error_category@std@@', 00H
_DATA	ENDS
;	COMDAT ??_R4_Iostream_error_category@std@@6B@
rdata$r	SEGMENT
??_R4_Iostream_error_category@std@@6B@ DD 00H		; std::_Iostream_error_category::`RTTI Complete Object Locator'
	DD	00H
	DD	00H
	DD	FLAT:??_R0?AV_Iostream_error_category@std@@@8
	DD	FLAT:??_R3_Iostream_error_category@std@@8
rdata$r	ENDS
;	COMDAT ??_R1A@?0A@EA@_Generic_error_category@std@@8
rdata$r	SEGMENT
??_R1A@?0A@EA@_Generic_error_category@std@@8 DD FLAT:??_R0?AV_Generic_error_category@std@@@8 ; std::_Generic_error_category::`RTTI Base Class Descriptor at (0,-1,0,64)'
	DD	01H
	DD	00H
	DD	0ffffffffH
	DD	00H
	DD	040H
	DD	FLAT:??_R3_Generic_error_category@std@@8
rdata$r	ENDS
;	COMDAT ??_R2_Generic_error_category@std@@8
rdata$r	SEGMENT
??_R2_Generic_error_category@std@@8 DD FLAT:??_R1A@?0A@EA@_Generic_error_category@std@@8 ; std::_Generic_error_category::`RTTI Base Class Array'
	DD	FLAT:??_R1A@?0A@EA@error_category@std@@8
rdata$r	ENDS
;	COMDAT ??_R3_Generic_error_category@std@@8
rdata$r	SEGMENT
??_R3_Generic_error_category@std@@8 DD 00H		; std::_Generic_error_category::`RTTI Class Hierarchy Descriptor'
	DD	00H
	DD	02H
	DD	FLAT:??_R2_Generic_error_category@std@@8
rdata$r	ENDS
;	COMDAT ??_R0?AV_Generic_error_category@std@@@8
_DATA	SEGMENT
??_R0?AV_Generic_error_category@std@@@8 DD FLAT:??_7type_info@@6B@ ; std::_Generic_error_category `RTTI Type Descriptor'
	DD	00H
	DB	'.?AV_Generic_error_category@std@@', 00H
_DATA	ENDS
;	COMDAT ??_R4_Generic_error_category@std@@6B@
rdata$r	SEGMENT
??_R4_Generic_error_category@std@@6B@ DD 00H		; std::_Generic_error_category::`RTTI Complete Object Locator'
	DD	00H
	DD	00H
	DD	FLAT:??_R0?AV_Generic_error_category@std@@@8
	DD	FLAT:??_R3_Generic_error_category@std@@8
rdata$r	ENDS
;	COMDAT ??_R1A@?0A@EA@error_category@std@@8
rdata$r	SEGMENT
??_R1A@?0A@EA@error_category@std@@8 DD FLAT:??_R0?AVerror_category@std@@@8 ; std::error_category::`RTTI Base Class Descriptor at (0,-1,0,64)'
	DD	00H
	DD	00H
	DD	0ffffffffH
	DD	00H
	DD	040H
	DD	FLAT:??_R3error_category@std@@8
rdata$r	ENDS
;	COMDAT ??_R2error_category@std@@8
rdata$r	SEGMENT
??_R2error_category@std@@8 DD FLAT:??_R1A@?0A@EA@error_category@std@@8 ; std::error_category::`RTTI Base Class Array'
rdata$r	ENDS
;	COMDAT ??_R3error_category@std@@8
rdata$r	SEGMENT
??_R3error_category@std@@8 DD 00H			; std::error_category::`RTTI Class Hierarchy Descriptor'
	DD	00H
	DD	01H
	DD	FLAT:??_R2error_category@std@@8
rdata$r	ENDS
;	COMDAT ??_R0?AVerror_category@std@@@8
_DATA	SEGMENT
??_R0?AVerror_category@std@@@8 DD FLAT:??_7type_info@@6B@ ; std::error_category `RTTI Type Descriptor'
	DD	00H
	DB	'.?AVerror_category@std@@', 00H
_DATA	ENDS
;	COMDAT ??_R4error_category@std@@6B@
rdata$r	SEGMENT
??_R4error_category@std@@6B@ DD 00H			; std::error_category::`RTTI Complete Object Locator'
	DD	00H
	DD	00H
	DD	FLAT:??_R0?AVerror_category@std@@@8
	DD	FLAT:??_R3error_category@std@@8
rdata$r	ENDS
;	COMDAT ??_C@_1CK@EOPGIILJ@?$AAi?$AAn?$AAv?$AAa?$AAl?$AAi?$AAd?$AA?5?$AAn?$AAu?$AAl?$AAl?$AA?5?$AAp?$AAo?$AAi?$AAn?$AAt?$AAe?$AAr?$AA?$AA@
CONST	SEGMENT
??_C@_1CK@EOPGIILJ@?$AAi?$AAn?$AAv?$AAa?$AAl?$AAi?$AAd?$AA?5?$AAn?$AAu?$AAl?$AAl?$AA?5?$AAp?$AAo?$AAi?$AAn?$AAt?$AAe?$AAr?$AA?$AA@ DB 'i'
	DB	00H, 'n', 00H, 'v', 00H, 'a', 00H, 'l', 00H, 'i', 00H, 'd', 00H
	DB	' ', 00H, 'n', 00H, 'u', 00H, 'l', 00H, 'l', 00H, ' ', 00H, 'p'
	DB	00H, 'o', 00H, 'i', 00H, 'n', 00H, 't', 00H, 'e', 00H, 'r', 00H
	DB	00H, 00H					; `string'
CONST	ENDS
;	COMDAT ??_C@_0BA@JFNIOLAK@string?5too?5long?$AA@
CONST	SEGMENT
??_C@_0BA@JFNIOLAK@string?5too?5long?$AA@ DB 'string too long', 00H ; `string'
CONST	ENDS
;	COMDAT ??_C@_0BI@CFPLBAOH@invalid?5string?5position?$AA@
CONST	SEGMENT
??_C@_0BI@CFPLBAOH@invalid?5string?5position?$AA@ DB 'invalid string posi'
	DB	'tion', 00H					; `string'
CONST	ENDS
;	COMDAT ??_C@_1IO@BLKJFPEG@?$AAc?$AA?3?$AA?2?$AAp?$AAr?$AAo?$AAg?$AAr?$AAa?$AAm?$AA?5?$AAf?$AAi?$AAl?$AAe?$AAs?$AA?5?$AA?$CI?$AAx?$AA8?$AA6?$AA?$CJ?$AA?2?$AAm?$AAi?$AAc?$AAr?$AAo?$AAs?$AAo?$AAf?$AAt@
CONST	SEGMENT
??_C@_1IO@BLKJFPEG@?$AAc?$AA?3?$AA?2?$AAp?$AAr?$AAo?$AAg?$AAr?$AAa?$AAm?$AA?5?$AAf?$AAi?$AAl?$AAe?$AAs?$AA?5?$AA?$CI?$AAx?$AA8?$AA6?$AA?$CJ?$AA?2?$AAm?$AAi?$AAc?$AAr?$AAo?$AAs?$AAo?$AAf?$AAt@ DB 'c'
	DB	00H, ':', 00H, '\', 00H, 'p', 00H, 'r', 00H, 'o', 00H, 'g', 00H
	DB	'r', 00H, 'a', 00H, 'm', 00H, ' ', 00H, 'f', 00H, 'i', 00H, 'l'
	DB	00H, 'e', 00H, 's', 00H, ' ', 00H, '(', 00H, 'x', 00H, '8', 00H
	DB	'6', 00H, ')', 00H, '\', 00H, 'm', 00H, 'i', 00H, 'c', 00H, 'r'
	DB	00H, 'o', 00H, 's', 00H, 'o', 00H, 'f', 00H, 't', 00H, ' ', 00H
	DB	'v', 00H, 'i', 00H, 's', 00H, 'u', 00H, 'a', 00H, 'l', 00H, ' '
	DB	00H, 's', 00H, 't', 00H, 'u', 00H, 'd', 00H, 'i', 00H, 'o', 00H
	DB	' ', 00H, '1', 00H, '1', 00H, '.', 00H, '0', 00H, '\', 00H, 'v'
	DB	00H, 'c', 00H, '\', 00H, 'i', 00H, 'n', 00H, 'c', 00H, 'l', 00H
	DB	'u', 00H, 'd', 00H, 'e', 00H, '\', 00H, 'x', 00H, 's', 00H, 't'
	DB	00H, 'r', 00H, 'i', 00H, 'n', 00H, 'g', 00H, 00H, 00H ; `string'
CONST	ENDS
;	COMDAT ??_C@_05GAHPNDDB@I7041?$AA@
CONST	SEGMENT
??_C@_05GAHPNDDB@I7041?$AA@ DB 'I7041', 00H		; `string'
CONST	ENDS
;	COMDAT ??_C@_05EMFLCICO@I7002?$AA@
CONST	SEGMENT
??_C@_05EMFLCICO@I7002?$AA@ DB 'I7002', 00H		; `string'
CONST	ENDS
;	COMDAT ??_C@_02GMLFBBN@wb?$AA@
CONST	SEGMENT
??_C@_02GMLFBBN@wb?$AA@ DB 'wb', 00H			; `string'
CONST	ENDS
;	COMDAT ??_C@_02JDPG@rb?$AA@
CONST	SEGMENT
??_C@_02JDPG@rb?$AA@ DB 'rb', 00H			; `string'
CONST	ENDS
;	COMDAT ??_C@_0BA@HOEGDEMG@tmp_x304ch?4b_?$CFd?$AA@
CONST	SEGMENT
??_C@_0BA@HOEGDEMG@tmp_x304ch?4b_?$CFd?$AA@ DB 'tmp_x304ch.b_%d', 00H ; `string'
CONST	ENDS
;	COMDAT ??_C@_04EMGBMNMA@X304?$AA@
CONST	SEGMENT
??_C@_04EMGBMNMA@X304?$AA@ DB 'X304', 00H		; `string'
CONST	ENDS
;	COMDAT ??_C@_09KPBEDMKF@?$CFs?5ch?3?5?$CFd?$AA@
CONST	SEGMENT
??_C@_09KPBEDMKF@?$CFs?5ch?3?5?$CFd?$AA@ DB '%s ch: %d', 00H ; `string'
CONST	ENDS
;	COMDAT ??_C@_05GGIAPBHH@BSKZH?$AA@
CONST	SEGMENT
??_C@_05GGIAPBHH@BSKZH?$AA@ DB 'BSKZH', 00H		; `string'
CONST	ENDS
;	COMDAT ??_7I7041Device@@6B@
CONST	SEGMENT
??_7I7041Device@@6B@ DD FLAT:??_R4I7041Device@@6B@	; I7041Device::`vftable'
	DD	FLAT:??_EI7041Device@@UAEPAXI@Z
	DD	FLAT:?getVal@I7041Device@@UAEIPAVProperty@@@Z
	DD	FLAT:?setVal@I7041Device@@UAEIPAVProperty@@@Z
CONST	ENDS
;	COMDAT ??_7I7002Device@@6B@
CONST	SEGMENT
??_7I7002Device@@6B@ DD FLAT:??_R4I7002Device@@6B@	; I7002Device::`vftable'
	DD	FLAT:??_EI7002Device@@UAEPAXI@Z
	DD	FLAT:?getVal@I7002Device@@UAEIPAVProperty@@@Z
	DD	FLAT:?setVal@I7002Device@@UAEIPAVProperty@@@Z
CONST	ENDS
;	COMDAT ??_7X304Device@@6B@
CONST	SEGMENT
??_7X304Device@@6B@ DD FLAT:??_R4X304Device@@6B@	; X304Device::`vftable'
	DD	FLAT:??_EX304Device@@UAEPAXI@Z
	DD	FLAT:?getVal@X304Device@@UAEIPAVProperty@@@Z
	DD	FLAT:?setVal@X304Device@@UAEIPAVProperty@@@Z
CONST	ENDS
;	COMDAT ??_7BskzhDevice@@6B@
CONST	SEGMENT
??_7BskzhDevice@@6B@ DD FLAT:??_R4BskzhDevice@@6B@	; BskzhDevice::`vftable'
	DD	FLAT:??_EBskzhDevice@@UAEPAXI@Z
	DD	FLAT:?getVal@BskzhDevice@@UAEIPAVProperty@@@Z
	DD	FLAT:?setVal@BskzhDevice@@UAEIPAVProperty@@@Z
CONST	ENDS
;	COMDAT ??_C@_06FHFOAHML@system?$AA@
CONST	SEGMENT
??_C@_06FHFOAHML@system?$AA@ DB 'system', 00H		; `string'
CONST	ENDS
;	COMDAT ??_7_System_error_category@std@@6B@
CONST	SEGMENT
??_7_System_error_category@std@@6B@ DD FLAT:??_R4_System_error_category@std@@6B@ ; std::_System_error_category::`vftable'
	DD	FLAT:??_E_System_error_category@std@@UAEPAXI@Z
	DD	FLAT:?name@_System_error_category@std@@UBEPBDXZ
	DD	FLAT:?message@_System_error_category@std@@UBE?AV?$basic_string@DU?$char_traits@D@std@@V?$allocator@D@2@@2@H@Z
	DD	FLAT:?default_error_condition@_System_error_category@std@@UBE?AVerror_condition@2@H@Z
	DD	FLAT:?equivalent@error_category@std@@UBE_NABVerror_code@2@H@Z
	DD	FLAT:?equivalent@error_category@std@@UBE_NHABVerror_condition@2@@Z
CONST	ENDS
;	COMDAT ??_C@_0BG@PADBLCHM@iostream?5stream?5error?$AA@
CONST	SEGMENT
??_C@_0BG@PADBLCHM@iostream?5stream?5error?$AA@ DB 'iostream stream error'
	DB	00H						; `string'
CONST	ENDS
;	COMDAT ??_C@_08LLGCOLLL@iostream?$AA@
CONST	SEGMENT
??_C@_08LLGCOLLL@iostream?$AA@ DB 'iostream', 00H	; `string'
CONST	ENDS
;	COMDAT ??_7_Iostream_error_category@std@@6B@
CONST	SEGMENT
??_7_Iostream_error_category@std@@6B@ DD FLAT:??_R4_Iostream_error_category@std@@6B@ ; std::_Iostream_error_category::`vftable'
	DD	FLAT:??_E_Iostream_error_category@std@@UAEPAXI@Z
	DD	FLAT:?name@_Iostream_error_category@std@@UBEPBDXZ
	DD	FLAT:?message@_Iostream_error_category@std@@UBE?AV?$basic_string@DU?$char_traits@D@std@@V?$allocator@D@2@@2@H@Z
	DD	FLAT:?default_error_condition@error_category@std@@UBE?AVerror_condition@2@H@Z
	DD	FLAT:?equivalent@error_category@std@@UBE_NABVerror_code@2@H@Z
	DD	FLAT:?equivalent@error_category@std@@UBE_NHABVerror_condition@2@@Z
CONST	ENDS
;	COMDAT ??_C@_0O@BFJCFAAK@unknown?5error?$AA@
CONST	SEGMENT
??_C@_0O@BFJCFAAK@unknown?5error?$AA@ DB 'unknown error', 00H ; `string'
CONST	ENDS
;	COMDAT ??_C@_07DCLBNMLN@generic?$AA@
CONST	SEGMENT
??_C@_07DCLBNMLN@generic?$AA@ DB 'generic', 00H		; `string'
CONST	ENDS
;	COMDAT ??_7_Generic_error_category@std@@6B@
CONST	SEGMENT
??_7_Generic_error_category@std@@6B@ DD FLAT:??_R4_Generic_error_category@std@@6B@ ; std::_Generic_error_category::`vftable'
	DD	FLAT:??_E_Generic_error_category@std@@UAEPAXI@Z
	DD	FLAT:?name@_Generic_error_category@std@@UBEPBDXZ
	DD	FLAT:?message@_Generic_error_category@std@@UBE?AV?$basic_string@DU?$char_traits@D@std@@V?$allocator@D@2@@2@H@Z
	DD	FLAT:?default_error_condition@error_category@std@@UBE?AVerror_condition@2@H@Z
	DD	FLAT:?equivalent@error_category@std@@UBE_NABVerror_code@2@H@Z
	DD	FLAT:?equivalent@error_category@std@@UBE_NHABVerror_condition@2@@Z
CONST	ENDS
;	COMDAT ??_7error_category@std@@6B@
CONST	SEGMENT
??_7error_category@std@@6B@ DD FLAT:??_R4error_category@std@@6B@ ; std::error_category::`vftable'
	DD	FLAT:??_Eerror_category@std@@UAEPAXI@Z
	DD	FLAT:__purecall
	DD	FLAT:__purecall
	DD	FLAT:?default_error_condition@error_category@std@@UBE?AVerror_condition@2@H@Z
	DD	FLAT:?equivalent@error_category@std@@UBE_NABVerror_code@2@H@Z
	DD	FLAT:?equivalent@error_category@std@@UBE_NHABVerror_condition@2@@Z
CONST	ENDS
;	COMDAT xdata$x
xdata$x	SEGMENT
__unwindtable$??$construct@PADAAPAD@?$allocator@D@std@@QAEXPAPADAAPAD@Z DD 0ffffffffH
	DD	FLAT:__unwindfunclet$??$construct@PADAAPAD@?$allocator@D@std@@QAEXPAPADAAPAD@Z$0
__ehfuncinfo$??$construct@PADAAPAD@?$allocator@D@std@@QAEXPAPADAAPAD@Z DD 019930522H
	DD	01H
	DD	FLAT:__unwindtable$??$construct@PADAAPAD@?$allocator@D@std@@QAEXPAPADAAPAD@Z
	DD	2 DUP(00H)
	DD	2 DUP(00H)
	DD	00H
	DD	01H
xdata$x	ENDS
;	COMDAT xdata$x
xdata$x	SEGMENT
__unwindtable$??$construct@U_Container_proxy@std@@U12@@?$allocator@U_Container_proxy@std@@@std@@QAEXPAU_Container_proxy@1@$$QAU21@@Z DD 0ffffffffH
	DD	FLAT:__unwindfunclet$??$construct@U_Container_proxy@std@@U12@@?$allocator@U_Container_proxy@std@@@std@@QAEXPAU_Container_proxy@1@$$QAU21@@Z$0
__ehfuncinfo$??$construct@U_Container_proxy@std@@U12@@?$allocator@U_Container_proxy@std@@@std@@QAEXPAU_Container_proxy@1@$$QAU21@@Z DD 019930522H
	DD	01H
	DD	FLAT:__unwindtable$??$construct@U_Container_proxy@std@@U12@@?$allocator@U_Container_proxy@std@@@std@@QAEXPAU_Container_proxy@1@$$QAU21@@Z
	DD	2 DUP(00H)
	DD	2 DUP(00H)
	DD	00H
	DD	01H
xdata$x	ENDS
;	COMDAT xdata$x
xdata$x	SEGMENT
__unwindtable$??0I7041Device@@QAE@GG@Z DD 0ffffffffH
	DD	FLAT:__unwindfunclet$??0I7041Device@@QAE@GG@Z$0
	DD	00H
	DD	FLAT:__unwindfunclet$??0I7041Device@@QAE@GG@Z$1
	DD	00H
	DD	FLAT:__unwindfunclet$??0I7041Device@@QAE@GG@Z$2
__ehfuncinfo$??0I7041Device@@QAE@GG@Z DD 019930522H
	DD	03H
	DD	FLAT:__unwindtable$??0I7041Device@@QAE@GG@Z
	DD	2 DUP(00H)
	DD	2 DUP(00H)
	DD	00H
	DD	01H
xdata$x	ENDS
;	COMDAT xdata$x
xdata$x	SEGMENT
__ehfuncinfo$??0I7002Device@@QAE@GG@Z DD 019930522H
	DD	05H
	DD	FLAT:__unwindtable$??0I7002Device@@QAE@GG@Z
	DD	2 DUP(00H)
	DD	2 DUP(00H)
	DD	00H
	DD	01H
__unwindtable$??0I7002Device@@QAE@GG@Z DD 0ffffffffH
	DD	FLAT:__unwindfunclet$??0I7002Device@@QAE@GG@Z$0
	DD	00H
	DD	FLAT:__unwindfunclet$??0I7002Device@@QAE@GG@Z$1
	DD	00H
	DD	FLAT:__unwindfunclet$??0I7002Device@@QAE@GG@Z$2
	DD	00H
	DD	FLAT:__unwindfunclet$??0I7002Device@@QAE@GG@Z$3
	DD	00H
	DD	FLAT:__unwindfunclet$??0I7002Device@@QAE@GG@Z$4
xdata$x	ENDS
;	COMDAT xdata$x
xdata$x	SEGMENT
__ehfuncinfo$??0X304Device@@QAE@GG@Z DD 019930522H
	DD	05H
	DD	FLAT:__unwindtable$??0X304Device@@QAE@GG@Z
	DD	2 DUP(00H)
	DD	2 DUP(00H)
	DD	00H
	DD	01H
__unwindtable$??0X304Device@@QAE@GG@Z DD 0ffffffffH
	DD	FLAT:__unwindfunclet$??0X304Device@@QAE@GG@Z$0
	DD	00H
	DD	FLAT:__unwindfunclet$??0X304Device@@QAE@GG@Z$1
	DD	00H
	DD	FLAT:__unwindfunclet$??0X304Device@@QAE@GG@Z$2
	DD	00H
	DD	FLAT:__unwindfunclet$??0X304Device@@QAE@GG@Z$3
	DD	00H
	DD	FLAT:__unwindfunclet$??0X304Device@@QAE@GG@Z$4
xdata$x	ENDS
;	COMDAT xdata$x
xdata$x	SEGMENT
__unwindtable$??0BskzhDevice@@QAE@GG@Z DD 0ffffffffH
	DD	FLAT:__unwindfunclet$??0BskzhDevice@@QAE@GG@Z$0
	DD	00H
	DD	FLAT:__unwindfunclet$??0BskzhDevice@@QAE@GG@Z$1
	DD	00H
	DD	FLAT:__unwindfunclet$??0BskzhDevice@@QAE@GG@Z$2
	DD	00H
	DD	FLAT:__unwindfunclet$??0BskzhDevice@@QAE@GG@Z$3
__ehfuncinfo$??0BskzhDevice@@QAE@GG@Z DD 019930522H
	DD	04H
	DD	FLAT:__unwindtable$??0BskzhDevice@@QAE@GG@Z
	DD	2 DUP(00H)
	DD	2 DUP(00H)
	DD	00H
	DD	01H
xdata$x	ENDS
;	COMDAT xdata$x
xdata$x	SEGMENT
__catchsym$?_Copy@?$basic_string@DU?$char_traits@D@std@@V?$allocator@D@2@@std@@QAEXII@Z$5 DD 040H
	DD	00H
	DD	00H
	DD	FLAT:__catch$?_Copy@?$basic_string@DU?$char_traits@D@std@@V?$allocator@D@2@@std@@QAEXII@Z$0
__catchsym$?_Copy@?$basic_string@DU?$char_traits@D@std@@V?$allocator@D@2@@std@@QAEXII@Z$4 DD 040H
	DD	00H
	DD	00H
	DD	FLAT:__catch$?_Copy@?$basic_string@DU?$char_traits@D@std@@V?$allocator@D@2@@std@@QAEXII@Z$1
__unwindtable$?_Copy@?$basic_string@DU?$char_traits@D@std@@V?$allocator@D@2@@std@@QAEXII@Z DD 0ffffffffH
	DD	00H
	DD	0ffffffffH
	DD	00H
	DD	01H
	DD	00H
	DD	01H
	DD	00H
__ehfuncinfo$?_Copy@?$basic_string@DU?$char_traits@D@std@@V?$allocator@D@2@@std@@QAEXII@Z DD 019930522H
	DD	04H
	DD	FLAT:__unwindtable$?_Copy@?$basic_string@DU?$char_traits@D@std@@V?$allocator@D@2@@std@@QAEXII@Z
	DD	02H
	DD	FLAT:__tryblocktable$?_Copy@?$basic_string@DU?$char_traits@D@std@@V?$allocator@D@2@@std@@QAEXII@Z
	DD	2 DUP(00H)
	DD	00H
	DD	01H
__tryblocktable$?_Copy@?$basic_string@DU?$char_traits@D@std@@V?$allocator@D@2@@std@@QAEXII@Z DD 02H
	DD	02H
	DD	03H
	DD	01H
	DD	FLAT:__catchsym$?_Copy@?$basic_string@DU?$char_traits@D@std@@V?$allocator@D@2@@std@@QAEXII@Z$4
	DD	00H
	DD	00H
	DD	03H
	DD	01H
	DD	FLAT:__catchsym$?_Copy@?$basic_string@DU?$char_traits@D@std@@V?$allocator@D@2@@std@@QAEXII@Z$5
xdata$x	ENDS
;	COMDAT xdata$x
xdata$x	SEGMENT
__unwindtable$??0?$basic_string@DU?$char_traits@D@std@@V?$allocator@D@2@@std@@QAE@PBD@Z DD 0ffffffffH
	DD	FLAT:__unwindfunclet$??0?$basic_string@DU?$char_traits@D@std@@V?$allocator@D@2@@std@@QAE@PBD@Z$0
__ehfuncinfo$??0?$basic_string@DU?$char_traits@D@std@@V?$allocator@D@2@@std@@QAE@PBD@Z DD 019930522H
	DD	01H
	DD	FLAT:__unwindtable$??0?$basic_string@DU?$char_traits@D@std@@V?$allocator@D@2@@std@@QAE@PBD@Z
	DD	2 DUP(00H)
	DD	2 DUP(00H)
	DD	00H
	DD	01H
xdata$x	ENDS
;	COMDAT xdata$x
xdata$x	SEGMENT
__unwindtable$??0?$_String_alloc@$0A@U?$_String_base_types@DV?$allocator@D@std@@@std@@@std@@QAE@ABV?$allocator@D@1@@Z DD 0ffffffffH
	DD	FLAT:__unwindfunclet$??0?$_String_alloc@$0A@U?$_String_base_types@DV?$allocator@D@std@@@std@@@std@@QAE@ABV?$allocator@D@1@@Z$0
__ehfuncinfo$??0?$_String_alloc@$0A@U?$_String_base_types@DV?$allocator@D@std@@@std@@@std@@QAE@ABV?$allocator@D@1@@Z DD 019930522H
	DD	01H
	DD	FLAT:__unwindtable$??0?$_String_alloc@$0A@U?$_String_base_types@DV?$allocator@D@std@@@std@@@std@@QAE@ABV?$allocator@D@1@@Z
	DD	2 DUP(00H)
	DD	2 DUP(00H)
	DD	00H
	DD	01H
xdata$x	ENDS
CRT$XCU	SEGMENT
_allocator_arg$initializer$ DD FLAT:??__Eallocator_arg@std@@YAXXZ
CRT$XCU	ENDS
;	COMDAT CRT$XCU
CRT$XCU	SEGMENT
?_Generic_object$initializer$@?$_Error_objects@H@std@@2P6AXXZA DD FLAT:??__E?_Generic_object@?$_Error_objects@H@std@@2V_Generic_error_category@2@A@@YAXXZ ; std::_Error_objects<int>::_Generic_object$initializer$
CRT$XCU	ENDS
;	COMDAT CRT$XCU
CRT$XCU	SEGMENT
?_Iostream_object$initializer$@?$_Error_objects@H@std@@2P6AXXZA DD FLAT:??__E?_Iostream_object@?$_Error_objects@H@std@@2V_Iostream_error_category@2@A@@YAXXZ ; std::_Error_objects<int>::_Iostream_object$initializer$
CRT$XCU	ENDS
;	COMDAT CRT$XCU
CRT$XCU	SEGMENT
?_System_object$initializer$@?$_Error_objects@H@std@@2P6AXXZA DD FLAT:??__E?_System_object@?$_Error_objects@H@std@@2V_System_error_category@2@A@@YAXXZ ; std::_Error_objects<int>::_System_object$initializer$
CRT$XCU	ENDS
; Function compile flags: /Odtp /RTCsu /ZI
;	COMDAT ??$destroy@PAD@?$allocator@D@std@@QAEXPAPAD@Z
_TEXT	SEGMENT
_this$ = -8						; size = 4
__Ptr$ = 8						; size = 4
??$destroy@PAD@?$allocator@D@std@@QAEXPAPAD@Z PROC	; std::allocator<char>::destroy<char *>, COMDAT
; _this$ = ecx
; File c:\program files (x86)\microsoft visual studio 11.0\vc\include\xmemory0
; Line 621
	push	ebp
	mov	ebp, esp
	sub	esp, 204				; 000000ccH
	push	ebx
	push	esi
	push	edi
	push	ecx
	lea	edi, DWORD PTR [ebp-204]
	mov	ecx, 51					; 00000033H
	mov	eax, -858993460				; ccccccccH
	rep stosd
	pop	ecx
	mov	DWORD PTR _this$[ebp], ecx
; Line 624
	pop	edi
	pop	esi
	pop	ebx
	mov	esp, ebp
	pop	ebp
	ret	4
??$destroy@PAD@?$allocator@D@std@@QAEXPAPAD@Z ENDP	; std::allocator<char>::destroy<char *>
_TEXT	ENDS
; Function compile flags: /Odtp /RTCsu /ZI
;	COMDAT ??$construct@PADAAPAD@?$allocator@D@std@@QAEXPAPADAAPAD@Z
_TEXT	SEGMENT
tv73 = -244						; size = 4
$T2 = -236						; size = 4
$T3 = -224						; size = 4
_this$ = -20						; size = 4
__$EHRec$ = -12						; size = 12
__Ptr$ = 8						; size = 4
__V0$ = 12						; size = 4
??$construct@PADAAPAD@?$allocator@D@std@@QAEXPAPADAAPAD@Z PROC ; std::allocator<char>::construct<char *,char * &>, COMDAT
; _this$ = ecx
; File c:\program files (x86)\microsoft visual studio 11.0\vc\include\xmemory0
; Line 617
	push	ebp
	mov	ebp, esp
	push	-1
	push	__ehhandler$??$construct@PADAAPAD@?$allocator@D@std@@QAEXPAPADAAPAD@Z
	mov	eax, DWORD PTR fs:0
	push	eax
	sub	esp, 232				; 000000e8H
	push	ebx
	push	esi
	push	edi
	push	ecx
	lea	edi, DWORD PTR [ebp-244]
	mov	ecx, 58					; 0000003aH
	mov	eax, -858993460				; ccccccccH
	rep stosd
	pop	ecx
	mov	eax, DWORD PTR ___security_cookie
	xor	eax, ebp
	push	eax
	lea	eax, DWORD PTR __$EHRec$[ebp]
	mov	DWORD PTR fs:0, eax
	mov	DWORD PTR _this$[ebp], ecx
	mov	eax, DWORD PTR __Ptr$[ebp]
	push	eax
	push	4
	call	??2@YAPAXIPAX@Z				; operator new
	add	esp, 8
	mov	DWORD PTR $T3[ebp], eax
	mov	DWORD PTR __$EHRec$[ebp+8], 0
	cmp	DWORD PTR $T3[ebp], 0
	je	SHORT $LN3@construct
	mov	ecx, DWORD PTR __V0$[ebp]
	push	ecx
	call	??$forward@AAPAD@std@@YAAAPADAAPAD@Z	; std::forward<char * &>
	add	esp, 4
	mov	edx, DWORD PTR $T3[ebp]
	mov	eax, DWORD PTR [eax]
	mov	DWORD PTR [edx], eax
	mov	ecx, DWORD PTR $T3[ebp]
	mov	DWORD PTR tv73[ebp], ecx
	jmp	SHORT $LN4@construct
$LN3@construct:
	mov	DWORD PTR tv73[ebp], 0
$LN4@construct:
	mov	edx, DWORD PTR tv73[ebp]
	mov	DWORD PTR $T2[ebp], edx
	mov	DWORD PTR __$EHRec$[ebp+8], -1
	mov	ecx, DWORD PTR __$EHRec$[ebp]
	mov	DWORD PTR fs:0, ecx
	pop	ecx
	pop	edi
	pop	esi
	pop	ebx
	add	esp, 244				; 000000f4H
	cmp	ebp, esp
	call	__RTC_CheckEsp
	mov	esp, ebp
	pop	ebp
	ret	8
_TEXT	ENDS
;	COMDAT text$x
text$x	SEGMENT
__unwindfunclet$??$construct@PADAAPAD@?$allocator@D@std@@QAEXPAPADAAPAD@Z$0:
	mov	eax, DWORD PTR __Ptr$[ebp]
	push	eax
	mov	eax, DWORD PTR $T3[ebp]
	push	eax
	call	??3@YAXPAX0@Z				; operator delete
	add	esp, 8
	ret	0
__ehhandler$??$construct@PADAAPAD@?$allocator@D@std@@QAEXPAPADAAPAD@Z:
	mov	edx, DWORD PTR [esp+8]
	lea	eax, DWORD PTR [edx+12]
	mov	ecx, DWORD PTR [edx-248]
	xor	ecx, eax
	call	@__security_check_cookie@4
	mov	eax, OFFSET __ehfuncinfo$??$construct@PADAAPAD@?$allocator@D@std@@QAEXPAPADAAPAD@Z
	jmp	___CxxFrameHandler3
text$x	ENDS
??$construct@PADAAPAD@?$allocator@D@std@@QAEXPAPADAAPAD@Z ENDP ; std::allocator<char>::construct<char *,char * &>
; Function compile flags: /Odtp /RTCsu /ZI
;	COMDAT ??$forward@U_Container_proxy@std@@@std@@YA$$QAU_Container_proxy@0@AAU10@@Z
_TEXT	SEGMENT
__Arg$ = 8						; size = 4
??$forward@U_Container_proxy@std@@@std@@YA$$QAU_Container_proxy@0@AAU10@@Z PROC ; std::forward<std::_Container_proxy>, COMDAT
; File c:\program files (x86)\microsoft visual studio 11.0\vc\include\type_traits
; Line 1775
	push	ebp
	mov	ebp, esp
	sub	esp, 192				; 000000c0H
	push	ebx
	push	esi
	push	edi
	lea	edi, DWORD PTR [ebp-192]
	mov	ecx, 48					; 00000030H
	mov	eax, -858993460				; ccccccccH
	rep stosd
; Line 1776
	mov	eax, DWORD PTR __Arg$[ebp]
; Line 1777
	pop	edi
	pop	esi
	pop	ebx
	mov	esp, ebp
	pop	ebp
	ret	0
??$forward@U_Container_proxy@std@@@std@@YA$$QAU_Container_proxy@0@AAU10@@Z ENDP ; std::forward<std::_Container_proxy>
_TEXT	ENDS
; Function compile flags: /Odtp /RTCsu /ZI
;	COMDAT ??$destroy@PAD@?$allocator_traits@V?$allocator@D@std@@@std@@SAXAAV?$allocator@D@1@PAPAD@Z
_TEXT	SEGMENT
__Al$ = 8						; size = 4
__Ptr$ = 12						; size = 4
??$destroy@PAD@?$allocator_traits@V?$allocator@D@std@@@std@@SAXAAV?$allocator@D@1@PAPAD@Z PROC ; std::allocator_traits<std::allocator<char> >::destroy<char *>, COMDAT
; File c:\program files (x86)\microsoft visual studio 11.0\vc\include\xmemory0
; Line 755
	push	ebp
	mov	ebp, esp
	sub	esp, 192				; 000000c0H
	push	ebx
	push	esi
	push	edi
	lea	edi, DWORD PTR [ebp-192]
	mov	ecx, 48					; 00000030H
	mov	eax, -858993460				; ccccccccH
	rep stosd
; Line 757
	mov	eax, DWORD PTR __Ptr$[ebp]
	push	eax
	mov	ecx, DWORD PTR __Al$[ebp]
	call	??$destroy@PAD@?$allocator@D@std@@QAEXPAPAD@Z ; std::allocator<char>::destroy<char *>
; Line 758
	pop	edi
	pop	esi
	pop	ebx
	add	esp, 192				; 000000c0H
	cmp	ebp, esp
	call	__RTC_CheckEsp
	mov	esp, ebp
	pop	ebp
	ret	0
??$destroy@PAD@?$allocator_traits@V?$allocator@D@std@@@std@@SAXAAV?$allocator@D@1@PAPAD@Z ENDP ; std::allocator_traits<std::allocator<char> >::destroy<char *>
_TEXT	ENDS
; Function compile flags: /Odtp /RTCsu /ZI
;	COMDAT ??$construct@PADAAPAD@?$allocator_traits@V?$allocator@D@std@@@std@@SAXAAV?$allocator@D@1@PAPADAAPAD@Z
_TEXT	SEGMENT
__Al$ = 8						; size = 4
__Ptr$ = 12						; size = 4
__V0$ = 16						; size = 4
??$construct@PADAAPAD@?$allocator_traits@V?$allocator@D@std@@@std@@SAXAAV?$allocator@D@1@PAPADAAPAD@Z PROC ; std::allocator_traits<std::allocator<char> >::construct<char *,char * &>, COMDAT
; File c:\program files (x86)\microsoft visual studio 11.0\vc\include\xmemory0
; Line 751
	push	ebp
	mov	ebp, esp
	sub	esp, 192				; 000000c0H
	push	ebx
	push	esi
	push	edi
	lea	edi, DWORD PTR [ebp-192]
	mov	ecx, 48					; 00000030H
	mov	eax, -858993460				; ccccccccH
	rep stosd
	mov	eax, DWORD PTR __V0$[ebp]
	push	eax
	call	??$forward@AAPAD@std@@YAAAPADAAPAD@Z	; std::forward<char * &>
	add	esp, 4
	push	eax
	mov	ecx, DWORD PTR __Ptr$[ebp]
	push	ecx
	mov	ecx, DWORD PTR __Al$[ebp]
	call	??$construct@PADAAPAD@?$allocator@D@std@@QAEXPAPADAAPAD@Z ; std::allocator<char>::construct<char *,char * &>
	pop	edi
	pop	esi
	pop	ebx
	add	esp, 192				; 000000c0H
	cmp	ebp, esp
	call	__RTC_CheckEsp
	mov	esp, ebp
	pop	ebp
	ret	0
??$construct@PADAAPAD@?$allocator_traits@V?$allocator@D@std@@@std@@SAXAAV?$allocator@D@1@PAPADAAPAD@Z ENDP ; std::allocator_traits<std::allocator<char> >::construct<char *,char * &>
_TEXT	ENDS
; Function compile flags: /Odtp /RTCsu /ZI
;	COMDAT ??$forward@AAPAD@std@@YAAAPADAAPAD@Z
_TEXT	SEGMENT
__Arg$ = 8						; size = 4
??$forward@AAPAD@std@@YAAAPADAAPAD@Z PROC		; std::forward<char * &>, COMDAT
; File c:\program files (x86)\microsoft visual studio 11.0\vc\include\type_traits
; Line 1775
	push	ebp
	mov	ebp, esp
	sub	esp, 192				; 000000c0H
	push	ebx
	push	esi
	push	edi
	lea	edi, DWORD PTR [ebp-192]
	mov	ecx, 48					; 00000030H
	mov	eax, -858993460				; ccccccccH
	rep stosd
; Line 1776
	mov	eax, DWORD PTR __Arg$[ebp]
; Line 1777
	pop	edi
	pop	esi
	pop	ebx
	mov	esp, ebp
	pop	ebp
	ret	0
??$forward@AAPAD@std@@YAAAPADAAPAD@Z ENDP		; std::forward<char * &>
_TEXT	ENDS
; Function compile flags: /Odtp /RTCsu /ZI
;	COMDAT ??__F?_System_object@?$_Error_objects@H@std@@2V_System_error_category@2@A@@YAXXZ
text$yd	SEGMENT
??__F?_System_object@?$_Error_objects@H@std@@2V_System_error_category@2@A@@YAXXZ PROC ; `dynamic atexit destructor for 'std::_Error_objects<int>::_System_object'', COMDAT
	push	ebp
	mov	ebp, esp
	sub	esp, 192				; 000000c0H
	push	ebx
	push	esi
	push	edi
	lea	edi, DWORD PTR [ebp-192]
	mov	ecx, 48					; 00000030H
	mov	eax, -858993460				; ccccccccH
	rep stosd
	mov	ecx, OFFSET ?_System_object@?$_Error_objects@H@std@@2V_System_error_category@2@A ; std::_Error_objects<int>::_System_object
	call	??1_System_error_category@std@@UAE@XZ
	pop	edi
	pop	esi
	pop	ebx
	add	esp, 192				; 000000c0H
	cmp	ebp, esp
	call	__RTC_CheckEsp
	mov	esp, ebp
	pop	ebp
	ret	0
??__F?_System_object@?$_Error_objects@H@std@@2V_System_error_category@2@A@@YAXXZ ENDP ; `dynamic atexit destructor for 'std::_Error_objects<int>::_System_object''
text$yd	ENDS
; Function compile flags: /Odtp /RTCsu /ZI
;	COMDAT ??__E?_System_object@?$_Error_objects@H@std@@2V_System_error_category@2@A@@YAXXZ
text$yc	SEGMENT
??__E?_System_object@?$_Error_objects@H@std@@2V_System_error_category@2@A@@YAXXZ PROC ; `dynamic initializer for 'std::_Error_objects<int>::_System_object'', COMDAT
; File c:\program files (x86)\microsoft visual studio 11.0\vc\include\xmemory0
; Line 627
	push	ebp
	mov	ebp, esp
	sub	esp, 192				; 000000c0H
	push	ebx
	push	esi
	push	edi
	lea	edi, DWORD PTR [ebp-192]
	mov	ecx, 48					; 00000030H
	mov	eax, -858993460				; ccccccccH
	rep stosd
	mov	ecx, OFFSET ?_System_object@?$_Error_objects@H@std@@2V_System_error_category@2@A ; std::_Error_objects<int>::_System_object
	call	??0_System_error_category@std@@QAE@XZ	; std::_System_error_category::_System_error_category
	push	OFFSET ??__F?_System_object@?$_Error_objects@H@std@@2V_System_error_category@2@A@@YAXXZ ; `dynamic atexit destructor for 'std::_Error_objects<int>::_System_object''
	call	_atexit
	add	esp, 4
	pop	edi
	pop	esi
	pop	ebx
	add	esp, 192				; 000000c0H
	cmp	ebp, esp
	call	__RTC_CheckEsp
	mov	esp, ebp
	pop	ebp
	ret	0
??__E?_System_object@?$_Error_objects@H@std@@2V_System_error_category@2@A@@YAXXZ ENDP ; `dynamic initializer for 'std::_Error_objects<int>::_System_object''
text$yc	ENDS
; Function compile flags: /Odtp /RTCsu /ZI
;	COMDAT ??__F?_Iostream_object@?$_Error_objects@H@std@@2V_Iostream_error_category@2@A@@YAXXZ
text$yd	SEGMENT
??__F?_Iostream_object@?$_Error_objects@H@std@@2V_Iostream_error_category@2@A@@YAXXZ PROC ; `dynamic atexit destructor for 'std::_Error_objects<int>::_Iostream_object'', COMDAT
	push	ebp
	mov	ebp, esp
	sub	esp, 192				; 000000c0H
	push	ebx
	push	esi
	push	edi
	lea	edi, DWORD PTR [ebp-192]
	mov	ecx, 48					; 00000030H
	mov	eax, -858993460				; ccccccccH
	rep stosd
	mov	ecx, OFFSET ?_Iostream_object@?$_Error_objects@H@std@@2V_Iostream_error_category@2@A ; std::_Error_objects<int>::_Iostream_object
	call	??1_Iostream_error_category@std@@UAE@XZ
	pop	edi
	pop	esi
	pop	ebx
	add	esp, 192				; 000000c0H
	cmp	ebp, esp
	call	__RTC_CheckEsp
	mov	esp, ebp
	pop	ebp
	ret	0
??__F?_Iostream_object@?$_Error_objects@H@std@@2V_Iostream_error_category@2@A@@YAXXZ ENDP ; `dynamic atexit destructor for 'std::_Error_objects<int>::_Iostream_object''
text$yd	ENDS
; Function compile flags: /Odtp /RTCsu /ZI
;	COMDAT ??__E?_Iostream_object@?$_Error_objects@H@std@@2V_Iostream_error_category@2@A@@YAXXZ
text$yc	SEGMENT
??__E?_Iostream_object@?$_Error_objects@H@std@@2V_Iostream_error_category@2@A@@YAXXZ PROC ; `dynamic initializer for 'std::_Error_objects<int>::_Iostream_object'', COMDAT
; File c:\program files (x86)\microsoft visual studio 11.0\vc\include\xmemory0
; Line 627
	push	ebp
	mov	ebp, esp
	sub	esp, 192				; 000000c0H
	push	ebx
	push	esi
	push	edi
	lea	edi, DWORD PTR [ebp-192]
	mov	ecx, 48					; 00000030H
	mov	eax, -858993460				; ccccccccH
	rep stosd
	mov	ecx, OFFSET ?_Iostream_object@?$_Error_objects@H@std@@2V_Iostream_error_category@2@A ; std::_Error_objects<int>::_Iostream_object
	call	??0_Iostream_error_category@std@@QAE@XZ	; std::_Iostream_error_category::_Iostream_error_category
	push	OFFSET ??__F?_Iostream_object@?$_Error_objects@H@std@@2V_Iostream_error_category@2@A@@YAXXZ ; `dynamic atexit destructor for 'std::_Error_objects<int>::_Iostream_object''
	call	_atexit
	add	esp, 4
	pop	edi
	pop	esi
	pop	ebx
	add	esp, 192				; 000000c0H
	cmp	ebp, esp
	call	__RTC_CheckEsp
	mov	esp, ebp
	pop	ebp
	ret	0
??__E?_Iostream_object@?$_Error_objects@H@std@@2V_Iostream_error_category@2@A@@YAXXZ ENDP ; `dynamic initializer for 'std::_Error_objects<int>::_Iostream_object''
text$yc	ENDS
; Function compile flags: /Odtp /RTCsu /ZI
;	COMDAT ??__F?_Generic_object@?$_Error_objects@H@std@@2V_Generic_error_category@2@A@@YAXXZ
text$yd	SEGMENT
??__F?_Generic_object@?$_Error_objects@H@std@@2V_Generic_error_category@2@A@@YAXXZ PROC ; `dynamic atexit destructor for 'std::_Error_objects<int>::_Generic_object'', COMDAT
	push	ebp
	mov	ebp, esp
	sub	esp, 192				; 000000c0H
	push	ebx
	push	esi
	push	edi
	lea	edi, DWORD PTR [ebp-192]
	mov	ecx, 48					; 00000030H
	mov	eax, -858993460				; ccccccccH
	rep stosd
	mov	ecx, OFFSET ?_Generic_object@?$_Error_objects@H@std@@2V_Generic_error_category@2@A ; std::_Error_objects<int>::_Generic_object
	call	??1_Generic_error_category@std@@UAE@XZ
	pop	edi
	pop	esi
	pop	ebx
	add	esp, 192				; 000000c0H
	cmp	ebp, esp
	call	__RTC_CheckEsp
	mov	esp, ebp
	pop	ebp
	ret	0
??__F?_Generic_object@?$_Error_objects@H@std@@2V_Generic_error_category@2@A@@YAXXZ ENDP ; `dynamic atexit destructor for 'std::_Error_objects<int>::_Generic_object''
text$yd	ENDS
; Function compile flags: /Odtp /RTCsu /ZI
;	COMDAT ??__E?_Generic_object@?$_Error_objects@H@std@@2V_Generic_error_category@2@A@@YAXXZ
text$yc	SEGMENT
??__E?_Generic_object@?$_Error_objects@H@std@@2V_Generic_error_category@2@A@@YAXXZ PROC ; `dynamic initializer for 'std::_Error_objects<int>::_Generic_object'', COMDAT
; File c:\program files (x86)\microsoft visual studio 11.0\vc\include\xmemory0
; Line 627
	push	ebp
	mov	ebp, esp
	sub	esp, 192				; 000000c0H
	push	ebx
	push	esi
	push	edi
	lea	edi, DWORD PTR [ebp-192]
	mov	ecx, 48					; 00000030H
	mov	eax, -858993460				; ccccccccH
	rep stosd
	mov	ecx, OFFSET ?_Generic_object@?$_Error_objects@H@std@@2V_Generic_error_category@2@A ; std::_Error_objects<int>::_Generic_object
	call	??0_Generic_error_category@std@@QAE@XZ	; std::_Generic_error_category::_Generic_error_category
	push	OFFSET ??__F?_Generic_object@?$_Error_objects@H@std@@2V_Generic_error_category@2@A@@YAXXZ ; `dynamic atexit destructor for 'std::_Error_objects<int>::_Generic_object''
	call	_atexit
	add	esp, 4
	pop	edi
	pop	esi
	pop	ebx
	add	esp, 192				; 000000c0H
	cmp	ebp, esp
	call	__RTC_CheckEsp
	mov	esp, ebp
	pop	ebp
	ret	0
??__E?_Generic_object@?$_Error_objects@H@std@@2V_Generic_error_category@2@A@@YAXXZ ENDP ; `dynamic initializer for 'std::_Error_objects<int>::_Generic_object''
text$yc	ENDS
; Function compile flags: /Odtp /RTCsu /ZI
;	COMDAT ??$_Allocate@D@std@@YAPADIPAD@Z
_TEXT	SEGMENT
__Ptr$ = -8						; size = 4
__Count$ = 8						; size = 4
___formal$ = 12						; size = 4
??$_Allocate@D@std@@YAPADIPAD@Z PROC			; std::_Allocate<char>, COMDAT
; File c:\program files (x86)\microsoft visual studio 11.0\vc\include\xmemory0
; Line 22
	push	ebp
	mov	ebp, esp
	sub	esp, 204				; 000000ccH
	push	ebx
	push	esi
	push	edi
	lea	edi, DWORD PTR [ebp-204]
	mov	ecx, 51					; 00000033H
	mov	eax, -858993460				; ccccccccH
	rep stosd
; Line 23
	mov	DWORD PTR __Ptr$[ebp], 0
; Line 25
	cmp	DWORD PTR __Count$[ebp], 0
	jne	SHORT $LN4@Allocate
; Line 27
	jmp	SHORT $LN3@Allocate
$LN4@Allocate:
; Line 28
	cmp	DWORD PTR __Count$[ebp], -1
	ja	SHORT $LN1@Allocate
	mov	eax, DWORD PTR __Count$[ebp]
	push	eax
	call	??2@YAPAXI@Z				; operator new
	add	esp, 4
	mov	DWORD PTR __Ptr$[ebp], eax
	cmp	DWORD PTR __Ptr$[ebp], 0
	jne	SHORT $LN3@Allocate
$LN1@Allocate:
; Line 29
	mov	esi, esp
	call	DWORD PTR __imp_?_Xbad_alloc@std@@YAXXZ
	cmp	esi, esp
	call	__RTC_CheckEsp
$LN3@Allocate:
; Line 31
	mov	eax, DWORD PTR __Ptr$[ebp]
$LN6@Allocate:
; Line 32
	pop	edi
	pop	esi
	pop	ebx
	add	esp, 204				; 000000ccH
	cmp	ebp, esp
	call	__RTC_CheckEsp
	mov	esp, ebp
	pop	ebp
	ret	0
??$_Allocate@D@std@@YAPADIPAD@Z ENDP			; std::_Allocate<char>
_TEXT	ENDS
; Function compile flags: /Odtp /RTCsu /ZI
;	COMDAT ??$_Allocate@U_Container_proxy@std@@@std@@YAPAU_Container_proxy@0@IPAU10@@Z
_TEXT	SEGMENT
__Ptr$ = -8						; size = 4
__Count$ = 8						; size = 4
___formal$ = 12						; size = 4
??$_Allocate@U_Container_proxy@std@@@std@@YAPAU_Container_proxy@0@IPAU10@@Z PROC ; std::_Allocate<std::_Container_proxy>, COMDAT
; File c:\program files (x86)\microsoft visual studio 11.0\vc\include\xmemory0
; Line 22
	push	ebp
	mov	ebp, esp
	sub	esp, 204				; 000000ccH
	push	ebx
	push	esi
	push	edi
	lea	edi, DWORD PTR [ebp-204]
	mov	ecx, 51					; 00000033H
	mov	eax, -858993460				; ccccccccH
	rep stosd
; Line 23
	mov	DWORD PTR __Ptr$[ebp], 0
; Line 25
	cmp	DWORD PTR __Count$[ebp], 0
	jne	SHORT $LN4@Allocate
; Line 27
	jmp	SHORT $LN3@Allocate
$LN4@Allocate:
; Line 28
	cmp	DWORD PTR __Count$[ebp], 536870911	; 1fffffffH
	ja	SHORT $LN1@Allocate
	mov	eax, DWORD PTR __Count$[ebp]
	shl	eax, 3
	push	eax
	call	??2@YAPAXI@Z				; operator new
	add	esp, 4
	mov	DWORD PTR __Ptr$[ebp], eax
	cmp	DWORD PTR __Ptr$[ebp], 0
	jne	SHORT $LN3@Allocate
$LN1@Allocate:
; Line 29
	mov	esi, esp
	call	DWORD PTR __imp_?_Xbad_alloc@std@@YAXXZ
	cmp	esi, esp
	call	__RTC_CheckEsp
$LN3@Allocate:
; Line 31
	mov	eax, DWORD PTR __Ptr$[ebp]
$LN6@Allocate:
; Line 32
	pop	edi
	pop	esi
	pop	ebx
	add	esp, 204				; 000000ccH
	cmp	ebp, esp
	call	__RTC_CheckEsp
	mov	esp, ebp
	pop	ebp
	ret	0
??$_Allocate@U_Container_proxy@std@@@std@@YAPAU_Container_proxy@0@IPAU10@@Z ENDP ; std::_Allocate<std::_Container_proxy>
_TEXT	ENDS
; Function compile flags: /Odtp /RTCsu /ZI
;	COMDAT ??$destroy@U_Container_proxy@std@@@?$allocator@U_Container_proxy@std@@@std@@QAEXPAU_Container_proxy@1@@Z
_TEXT	SEGMENT
_this$ = -8						; size = 4
__Ptr$ = 8						; size = 4
??$destroy@U_Container_proxy@std@@@?$allocator@U_Container_proxy@std@@@std@@QAEXPAU_Container_proxy@1@@Z PROC ; std::allocator<std::_Container_proxy>::destroy<std::_Container_proxy>, COMDAT
; _this$ = ecx
; File c:\program files (x86)\microsoft visual studio 11.0\vc\include\xmemory0
; Line 621
	push	ebp
	mov	ebp, esp
	sub	esp, 204				; 000000ccH
	push	ebx
	push	esi
	push	edi
	push	ecx
	lea	edi, DWORD PTR [ebp-204]
	mov	ecx, 51					; 00000033H
	mov	eax, -858993460				; ccccccccH
	rep stosd
	pop	ecx
	mov	DWORD PTR _this$[ebp], ecx
; Line 624
	pop	edi
	pop	esi
	pop	ebx
	mov	esp, ebp
	pop	ebp
	ret	4
??$destroy@U_Container_proxy@std@@@?$allocator@U_Container_proxy@std@@@std@@QAEXPAU_Container_proxy@1@@Z ENDP ; std::allocator<std::_Container_proxy>::destroy<std::_Container_proxy>
_TEXT	ENDS
; Function compile flags: /Odtp /RTCsu /ZI
;	COMDAT ??$construct@U_Container_proxy@std@@U12@@?$allocator@U_Container_proxy@std@@@std@@QAEXPAU_Container_proxy@1@$$QAU21@@Z
_TEXT	SEGMENT
tv74 = -244						; size = 4
$T2 = -236						; size = 4
$T3 = -224						; size = 4
_this$ = -20						; size = 4
__$EHRec$ = -12						; size = 12
__Ptr$ = 8						; size = 4
__V0$ = 12						; size = 4
??$construct@U_Container_proxy@std@@U12@@?$allocator@U_Container_proxy@std@@@std@@QAEXPAU_Container_proxy@1@$$QAU21@@Z PROC ; std::allocator<std::_Container_proxy>::construct<std::_Container_proxy,std::_Container_proxy>, COMDAT
; _this$ = ecx
; File c:\program files (x86)\microsoft visual studio 11.0\vc\include\xmemory0
; Line 617
	push	ebp
	mov	ebp, esp
	push	-1
	push	__ehhandler$??$construct@U_Container_proxy@std@@U12@@?$allocator@U_Container_proxy@std@@@std@@QAEXPAU_Container_proxy@1@$$QAU21@@Z
	mov	eax, DWORD PTR fs:0
	push	eax
	sub	esp, 232				; 000000e8H
	push	ebx
	push	esi
	push	edi
	push	ecx
	lea	edi, DWORD PTR [ebp-244]
	mov	ecx, 58					; 0000003aH
	mov	eax, -858993460				; ccccccccH
	rep stosd
	pop	ecx
	mov	eax, DWORD PTR ___security_cookie
	xor	eax, ebp
	push	eax
	lea	eax, DWORD PTR __$EHRec$[ebp]
	mov	DWORD PTR fs:0, eax
	mov	DWORD PTR _this$[ebp], ecx
	mov	eax, DWORD PTR __Ptr$[ebp]
	push	eax
	push	8
	call	??2@YAPAXIPAX@Z				; operator new
	add	esp, 8
	mov	DWORD PTR $T3[ebp], eax
	mov	DWORD PTR __$EHRec$[ebp+8], 0
	cmp	DWORD PTR $T3[ebp], 0
	je	SHORT $LN3@construct
	mov	ecx, DWORD PTR __V0$[ebp]
	push	ecx
	call	??$forward@U_Container_proxy@std@@@std@@YA$$QAU_Container_proxy@0@AAU10@@Z ; std::forward<std::_Container_proxy>
	add	esp, 4
	mov	edx, DWORD PTR [eax]
	mov	eax, DWORD PTR [eax+4]
	mov	ecx, DWORD PTR $T3[ebp]
	mov	DWORD PTR [ecx], edx
	mov	DWORD PTR [ecx+4], eax
	mov	edx, DWORD PTR $T3[ebp]
	mov	DWORD PTR tv74[ebp], edx
	jmp	SHORT $LN4@construct
$LN3@construct:
	mov	DWORD PTR tv74[ebp], 0
$LN4@construct:
	mov	eax, DWORD PTR tv74[ebp]
	mov	DWORD PTR $T2[ebp], eax
	mov	DWORD PTR __$EHRec$[ebp+8], -1
	mov	ecx, DWORD PTR __$EHRec$[ebp]
	mov	DWORD PTR fs:0, ecx
	pop	ecx
	pop	edi
	pop	esi
	pop	ebx
	add	esp, 244				; 000000f4H
	cmp	ebp, esp
	call	__RTC_CheckEsp
	mov	esp, ebp
	pop	ebp
	ret	8
_TEXT	ENDS
;	COMDAT text$x
text$x	SEGMENT
__unwindfunclet$??$construct@U_Container_proxy@std@@U12@@?$allocator@U_Container_proxy@std@@@std@@QAEXPAU_Container_proxy@1@$$QAU21@@Z$0:
	mov	eax, DWORD PTR __Ptr$[ebp]
	push	eax
	mov	eax, DWORD PTR $T3[ebp]
	push	eax
	call	??3@YAXPAX0@Z				; operator delete
	add	esp, 8
	ret	0
__ehhandler$??$construct@U_Container_proxy@std@@U12@@?$allocator@U_Container_proxy@std@@@std@@QAEXPAU_Container_proxy@1@$$QAU21@@Z:
	mov	edx, DWORD PTR [esp+8]
	lea	eax, DWORD PTR [edx+12]
	mov	ecx, DWORD PTR [edx-248]
	xor	ecx, eax
	call	@__security_check_cookie@4
	mov	eax, OFFSET __ehfuncinfo$??$construct@U_Container_proxy@std@@U12@@?$allocator@U_Container_proxy@std@@@std@@QAEXPAU_Container_proxy@1@$$QAU21@@Z
	jmp	___CxxFrameHandler3
text$x	ENDS
??$construct@U_Container_proxy@std@@U12@@?$allocator@U_Container_proxy@std@@@std@@QAEXPAU_Container_proxy@1@$$QAU21@@Z ENDP ; std::allocator<std::_Container_proxy>::construct<std::_Container_proxy,std::_Container_proxy>
; Function compile flags: /Odtp /RTCsu /ZI
;	COMDAT ?allocate@?$allocator@U_Container_proxy@std@@@std@@QAEPAU_Container_proxy@2@I@Z
_TEXT	SEGMENT
_this$ = -8						; size = 4
__Count$ = 8						; size = 4
?allocate@?$allocator@U_Container_proxy@std@@@std@@QAEPAU_Container_proxy@2@I@Z PROC ; std::allocator<std::_Container_proxy>::allocate, COMDAT
; _this$ = ecx
; File c:\program files (x86)\microsoft visual studio 11.0\vc\include\xmemory0
; Line 590
	push	ebp
	mov	ebp, esp
	sub	esp, 204				; 000000ccH
	push	ebx
	push	esi
	push	edi
	push	ecx
	lea	edi, DWORD PTR [ebp-204]
	mov	ecx, 51					; 00000033H
	mov	eax, -858993460				; ccccccccH
	rep stosd
	pop	ecx
	mov	DWORD PTR _this$[ebp], ecx
; Line 591
	push	0
	mov	eax, DWORD PTR __Count$[ebp]
	push	eax
	call	??$_Allocate@U_Container_proxy@std@@@std@@YAPAU_Container_proxy@0@IPAU10@@Z ; std::_Allocate<std::_Container_proxy>
	add	esp, 8
; Line 592
	pop	edi
	pop	esi
	pop	ebx
	add	esp, 204				; 000000ccH
	cmp	ebp, esp
	call	__RTC_CheckEsp
	mov	esp, ebp
	pop	ebp
	ret	4
?allocate@?$allocator@U_Container_proxy@std@@@std@@QAEPAU_Container_proxy@2@I@Z ENDP ; std::allocator<std::_Container_proxy>::allocate
_TEXT	ENDS
; Function compile flags: /Odtp /RTCsu /ZI
;	COMDAT ?deallocate@?$allocator@U_Container_proxy@std@@@std@@QAEXPAU_Container_proxy@2@I@Z
_TEXT	SEGMENT
_this$ = -8						; size = 4
__Ptr$ = 8						; size = 4
___formal$ = 12						; size = 4
?deallocate@?$allocator@U_Container_proxy@std@@@std@@QAEXPAU_Container_proxy@2@I@Z PROC ; std::allocator<std::_Container_proxy>::deallocate, COMDAT
; _this$ = ecx
; File c:\program files (x86)\microsoft visual studio 11.0\vc\include\xmemory0
; Line 585
	push	ebp
	mov	ebp, esp
	sub	esp, 204				; 000000ccH
	push	ebx
	push	esi
	push	edi
	push	ecx
	lea	edi, DWORD PTR [ebp-204]
	mov	ecx, 51					; 00000033H
	mov	eax, -858993460				; ccccccccH
	rep stosd
	pop	ecx
	mov	DWORD PTR _this$[ebp], ecx
; Line 586
	mov	eax, DWORD PTR __Ptr$[ebp]
	push	eax
	call	??3@YAXPAX@Z				; operator delete
	add	esp, 4
; Line 587
	pop	edi
	pop	esi
	pop	ebx
	add	esp, 204				; 000000ccH
	cmp	ebp, esp
	call	__RTC_CheckEsp
	mov	esp, ebp
	pop	ebp
	ret	8
?deallocate@?$allocator@U_Container_proxy@std@@@std@@QAEXPAU_Container_proxy@2@I@Z ENDP ; std::allocator<std::_Container_proxy>::deallocate
_TEXT	ENDS
; Function compile flags: /Odtp /RTCsu /ZI
;	COMDAT ??0?$allocator@U_Container_proxy@std@@@std@@QAE@XZ
_TEXT	SEGMENT
_this$ = -8						; size = 4
??0?$allocator@U_Container_proxy@std@@@std@@QAE@XZ PROC	; std::allocator<std::_Container_proxy>::allocator<std::_Container_proxy>, COMDAT
; _this$ = ecx
; File c:\program files (x86)\microsoft visual studio 11.0\vc\include\xmemory0
; Line 565
	push	ebp
	mov	ebp, esp
	sub	esp, 204				; 000000ccH
	push	ebx
	push	esi
	push	edi
	push	ecx
	lea	edi, DWORD PTR [ebp-204]
	mov	ecx, 51					; 00000033H
	mov	eax, -858993460				; ccccccccH
	rep stosd
	pop	ecx
	mov	DWORD PTR _this$[ebp], ecx
; Line 567
	mov	eax, DWORD PTR _this$[ebp]
	pop	edi
	pop	esi
	pop	ebx
	mov	esp, ebp
	pop	ebp
	ret	0
??0?$allocator@U_Container_proxy@std@@@std@@QAE@XZ ENDP	; std::allocator<std::_Container_proxy>::allocator<std::_Container_proxy>
_TEXT	ENDS
; Function compile flags: /Odtp /RTCsu /ZI
;	COMDAT ??$addressof@D@std@@YAPADAAD@Z
_TEXT	SEGMENT
__Val$ = 8						; size = 4
??$addressof@D@std@@YAPADAAD@Z PROC			; std::addressof<char>, COMDAT
; File c:\program files (x86)\microsoft visual studio 11.0\vc\include\xstddef
; Line 85
	push	ebp
	mov	ebp, esp
	sub	esp, 192				; 000000c0H
	push	ebx
	push	esi
	push	edi
	lea	edi, DWORD PTR [ebp-192]
	mov	ecx, 48					; 00000030H
	mov	eax, -858993460				; ccccccccH
	rep stosd
; Line 88
	mov	eax, DWORD PTR __Val$[ebp]
; Line 89
	pop	edi
	pop	esi
	pop	ebx
	mov	esp, ebp
	pop	ebp
	ret	0
??$addressof@D@std@@YAPADAAD@Z ENDP			; std::addressof<char>
_TEXT	ENDS
; Function compile flags: /Odtp /RTCsu /ZI
;	COMDAT ??$destroy@PAD@?$_Wrap_alloc@V?$allocator@D@std@@@std@@QAEXPAPAD@Z
_TEXT	SEGMENT
_this$ = -8						; size = 4
__Ptr$ = 8						; size = 4
??$destroy@PAD@?$_Wrap_alloc@V?$allocator@D@std@@@std@@QAEXPAPAD@Z PROC ; std::_Wrap_alloc<std::allocator<char> >::destroy<char *>, COMDAT
; _this$ = ecx
; File c:\program files (x86)\microsoft visual studio 11.0\vc\include\xmemory0
; Line 907
	push	ebp
	mov	ebp, esp
	sub	esp, 204				; 000000ccH
	push	ebx
	push	esi
	push	edi
	push	ecx
	lea	edi, DWORD PTR [ebp-204]
	mov	ecx, 51					; 00000033H
	mov	eax, -858993460				; ccccccccH
	rep stosd
	pop	ecx
	mov	DWORD PTR _this$[ebp], ecx
; Line 909
	mov	eax, DWORD PTR __Ptr$[ebp]
	push	eax
	mov	ecx, DWORD PTR _this$[ebp]
	push	ecx
	call	??$destroy@PAD@?$allocator_traits@V?$allocator@D@std@@@std@@SAXAAV?$allocator@D@1@PAPAD@Z ; std::allocator_traits<std::allocator<char> >::destroy<char *>
	add	esp, 8
; Line 910
	pop	edi
	pop	esi
	pop	ebx
	add	esp, 204				; 000000ccH
	cmp	ebp, esp
	call	__RTC_CheckEsp
	mov	esp, ebp
	pop	ebp
	ret	4
??$destroy@PAD@?$_Wrap_alloc@V?$allocator@D@std@@@std@@QAEXPAPAD@Z ENDP ; std::_Wrap_alloc<std::allocator<char> >::destroy<char *>
_TEXT	ENDS
; Function compile flags: /Odtp /RTCsu /ZI
;	COMDAT ??$construct@PADAAPAD@?$_Wrap_alloc@V?$allocator@D@std@@@std@@QAEXPAPADAAPAD@Z
_TEXT	SEGMENT
_this$ = -8						; size = 4
__Ptr$ = 8						; size = 4
__V0$ = 12						; size = 4
??$construct@PADAAPAD@?$_Wrap_alloc@V?$allocator@D@std@@@std@@QAEXPAPADAAPAD@Z PROC ; std::_Wrap_alloc<std::allocator<char> >::construct<char *,char * &>, COMDAT
; _this$ = ecx
; File c:\program files (x86)\microsoft visual studio 11.0\vc\include\xmemory0
; Line 903
	push	ebp
	mov	ebp, esp
	sub	esp, 204				; 000000ccH
	push	ebx
	push	esi
	push	edi
	push	ecx
	lea	edi, DWORD PTR [ebp-204]
	mov	ecx, 51					; 00000033H
	mov	eax, -858993460				; ccccccccH
	rep stosd
	pop	ecx
	mov	DWORD PTR _this$[ebp], ecx
	mov	eax, DWORD PTR __V0$[ebp]
	push	eax
	call	??$forward@AAPAD@std@@YAAAPADAAPAD@Z	; std::forward<char * &>
	add	esp, 4
	push	eax
	mov	ecx, DWORD PTR __Ptr$[ebp]
	push	ecx
	mov	edx, DWORD PTR _this$[ebp]
	push	edx
	call	??$construct@PADAAPAD@?$allocator_traits@V?$allocator@D@std@@@std@@SAXAAV?$allocator@D@1@PAPADAAPAD@Z ; std::allocator_traits<std::allocator<char> >::construct<char *,char * &>
	add	esp, 12					; 0000000cH
	pop	edi
	pop	esi
	pop	ebx
	add	esp, 204				; 000000ccH
	cmp	ebp, esp
	call	__RTC_CheckEsp
	mov	esp, ebp
	pop	ebp
	ret	8
??$construct@PADAAPAD@?$_Wrap_alloc@V?$allocator@D@std@@@std@@QAEXPAPADAAPAD@Z ENDP ; std::_Wrap_alloc<std::allocator<char> >::construct<char *,char * &>
_TEXT	ENDS
; Function compile flags: /Odtp /RTCsu /ZI
;	COMDAT ??_GI7041Device@@UAEPAXI@Z
_TEXT	SEGMENT
_this$ = -8						; size = 4
___flags$ = 8						; size = 4
??_GI7041Device@@UAEPAXI@Z PROC				; I7041Device::`scalar deleting destructor', COMDAT
; _this$ = ecx
	push	ebp
	mov	ebp, esp
	sub	esp, 204				; 000000ccH
	push	ebx
	push	esi
	push	edi
	push	ecx
	lea	edi, DWORD PTR [ebp-204]
	mov	ecx, 51					; 00000033H
	mov	eax, -858993460				; ccccccccH
	rep stosd
	pop	ecx
	mov	DWORD PTR _this$[ebp], ecx
	mov	ecx, DWORD PTR _this$[ebp]
	call	??1I7041Device@@UAE@XZ			; I7041Device::~I7041Device
	mov	eax, DWORD PTR ___flags$[ebp]
	and	eax, 1
	je	SHORT $LN1@scalar
	mov	eax, DWORD PTR _this$[ebp]
	push	eax
	call	??3@YAXPAX@Z				; operator delete
	add	esp, 4
$LN1@scalar:
	mov	eax, DWORD PTR _this$[ebp]
	pop	edi
	pop	esi
	pop	ebx
	add	esp, 204				; 000000ccH
	cmp	ebp, esp
	call	__RTC_CheckEsp
	mov	esp, ebp
	pop	ebp
	ret	4
??_GI7041Device@@UAEPAXI@Z ENDP				; I7041Device::`scalar deleting destructor'
_TEXT	ENDS
; Function compile flags: /Odtp /RTCsu /ZI
;	COMDAT ?setVal@I7041Device@@UAEIPAVProperty@@@Z
_TEXT	SEGMENT
_this$ = -8						; size = 4
_prop$ = 8						; size = 4
?setVal@I7041Device@@UAEIPAVProperty@@@Z PROC		; I7041Device::setVal, COMDAT
; _this$ = ecx
; File d:\projects\asu\icpdas\tmminios\tmminios\deviceclasses.cpp
; Line 501
	push	ebp
	mov	ebp, esp
	sub	esp, 204				; 000000ccH
	push	ebx
	push	esi
	push	edi
	push	ecx
	lea	edi, DWORD PTR [ebp-204]
	mov	ecx, 51					; 00000033H
	mov	eax, -858993460				; ccccccccH
	rep stosd
	pop	ecx
	mov	DWORD PTR _this$[ebp], ecx
; Line 502
	xor	eax, eax
; Line 503
	pop	edi
	pop	esi
	pop	ebx
	mov	esp, ebp
	pop	ebp
	ret	4
?setVal@I7041Device@@UAEIPAVProperty@@@Z ENDP		; I7041Device::setVal
_TEXT	ENDS
; Function compile flags: /Odtp /RTCsu /ZI
;	COMDAT ?getVal@I7041Device@@UAEIPAVProperty@@@Z
_TEXT	SEGMENT
$T1 = -308						; size = 16
$T2 = -284						; size = 16
_sv$3 = -68						; size = 8
_property$4 = -52					; size = 4
_sv$5 = -40						; size = 8
_property$6 = -24					; size = 4
_this$ = -12						; size = 4
__$ArrayPad$ = -4					; size = 4
_prop$ = 8						; size = 4
?getVal@I7041Device@@UAEIPAVProperty@@@Z PROC		; I7041Device::getVal, COMDAT
; _this$ = ecx
; File d:\projects\asu\icpdas\tmminios\tmminios\deviceclasses.cpp
; Line 468
	push	ebp
	mov	ebp, esp
	sub	esp, 312				; 00000138H
	push	ebx
	push	esi
	push	edi
	push	ecx
	lea	edi, DWORD PTR [ebp-312]
	mov	ecx, 78					; 0000004eH
	mov	eax, -858993460				; ccccccccH
	rep stosd
	pop	ecx
	mov	eax, DWORD PTR ___security_cookie
	xor	eax, ebp
	mov	DWORD PTR __$ArrayPad$[ebp], eax
	mov	DWORD PTR _this$[ebp], ecx
; Line 469
	mov	eax, DWORD PTR _prop$[ebp]
	cmp	DWORD PTR [eax+108], 108		; 0000006cH
	jne	$LN5@getVal
; Line 471
	mov	eax, DWORD PTR _prop$[ebp]
	cmp	DWORD PTR [eax+164], 0
	jne	$LN4@getVal
; Line 473
	mov	eax, DWORD PTR _prop$[ebp]
	mov	DWORD PTR _property$6[ebp], eax
; Line 474
	push	0
	push	1000					; 000003e8H
	push	1
	mov	eax, DWORD PTR _property$6[ebp]
	movsx	ecx, WORD PTR [eax+168]
	add	ecx, 32					; 00000020H
	push	ecx
	push	899					; 00000383H
	push	1
	mov	ecx, DWORD PTR _this$[ebp]
	call	?getAddress@AbstractDevice@@QAEGXZ	; AbstractDevice::getAddress
	movzx	edx, ax
	push	edx
	push	2
	call	?ModbusRTU_Master@@YAHHHHHHHHH@Z	; ModbusRTU_Master
	add	esp, 32					; 00000020H
	mov	ecx, DWORD PTR _prop$[ebp]
	mov	DWORD PTR [ecx+112], eax
; Line 475
	push	899					; 00000383H
	push	1
	lea	ecx, DWORD PTR _sv$5[ebp]
	call	??0SlaveInformation@@QAE@W4regType@@J@Z	; SlaveInformation::SlaveInformation
; Line 477
	push	2
	mov	eax, DWORD PTR _sv$5[ebp+4]
	push	eax
	mov	ecx, DWORD PTR _sv$5[ebp]
	push	ecx
	lea	edx, DWORD PTR $T1[ebp]
	push	edx
	mov	eax, DWORD PTR _this$[ebp]
	mov	ecx, DWORD PTR [eax+12]
	call	?getCoils@SlaveFactory@@QAE?ATuValue@@USlaveInformation@@I@Z ; SlaveFactory::getCoils
	mov	ecx, 4
	imul	ecx, 0
	mov	edx, DWORD PTR [eax+ecx]
	push	edx
	mov	ecx, DWORD PTR _prop$[ebp]
	call	?setValueBool@Property@@QAEXW4bool_t@@@Z ; Property::setValueBool
; Line 481
	jmp	SHORT $LN3@getVal
$LN4@getVal:
; Line 483
	mov	eax, DWORD PTR _prop$[ebp]
	mov	DWORD PTR _property$4[ebp], eax
; Line 484
	push	0
	push	1000					; 000003e8H
	push	1
	mov	eax, DWORD PTR _property$4[ebp]
	movsx	ecx, WORD PTR [eax+168]
	push	ecx
	push	899					; 00000383H
	push	4
	mov	ecx, DWORD PTR _this$[ebp]
	call	?getAddress@AbstractDevice@@QAEGXZ	; AbstractDevice::getAddress
	movzx	edx, ax
	push	edx
	push	2
	call	?ModbusRTU_Master@@YAHHHHHHHHH@Z	; ModbusRTU_Master
	add	esp, 32					; 00000020H
	mov	ecx, DWORD PTR _prop$[ebp]
	mov	DWORD PTR [ecx+112], eax
; Line 485
	push	899					; 00000383H
	push	3
	lea	ecx, DWORD PTR _sv$3[ebp]
	call	??0SlaveInformation@@QAE@W4regType@@J@Z	; SlaveInformation::SlaveInformation
; Line 487
	push	2
	mov	eax, DWORD PTR _sv$3[ebp+4]
	push	eax
	mov	ecx, DWORD PTR _sv$3[ebp]
	push	ecx
	lea	edx, DWORD PTR $T2[ebp]
	push	edx
	mov	eax, DWORD PTR _this$[ebp]
	mov	ecx, DWORD PTR [eax+12]
	call	?getInputRegisters@SlaveFactory@@QAE?ATuValue@@USlaveInformation@@I@Z ; SlaveFactory::getInputRegisters
	mov	ecx, 2
	imul	ecx, 0
	movsx	esi, WORD PTR [eax+ecx]
	mov	ecx, DWORD PTR _prop$[ebp]
	call	?getNativeValue@Property@@QAEPAXXZ	; Property::getNativeValue
	mov	DWORD PTR [eax], esi
$LN3@getVal:
; Line 490
	jmp	SHORT $LN2@getVal
$LN5@getVal:
; Line 492
	mov	eax, DWORD PTR _prop$[ebp]
	cmp	DWORD PTR [eax+108], 109		; 0000006dH
	jne	SHORT $LN2@getVal
; Line 494
	mov	eax, DWORD PTR _prop$[ebp]
	mov	ecx, DWORD PTR [eax+112]
	push	ecx
	mov	ecx, DWORD PTR _prop$[ebp]
	call	?setValueUnsignedLong@Property@@QAEXK@Z	; Property::setValueUnsignedLong
$LN2@getVal:
; Line 497
	mov	eax, DWORD PTR _prop$[ebp]
	mov	eax, DWORD PTR [eax+112]
; Line 498
	push	edx
	mov	ecx, ebp
	push	eax
	lea	edx, DWORD PTR $LN11@getVal
	call	@_RTC_CheckStackVars@8
	pop	eax
	pop	edx
	pop	edi
	pop	esi
	pop	ebx
	mov	ecx, DWORD PTR __$ArrayPad$[ebp]
	xor	ecx, ebp
	call	@__security_check_cookie@4
	add	esp, 312				; 00000138H
	cmp	ebp, esp
	call	__RTC_CheckEsp
	mov	esp, ebp
	pop	ebp
	ret	4
	npad	2
$LN11@getVal:
	DD	2
	DD	$LN10@getVal
$LN10@getVal:
	DD	-40					; ffffffd8H
	DD	8
	DD	$LN8@getVal
	DD	-68					; ffffffbcH
	DD	8
	DD	$LN9@getVal
$LN9@getVal:
	DB	115					; 00000073H
	DB	118					; 00000076H
	DB	0
$LN8@getVal:
	DB	115					; 00000073H
	DB	118					; 00000076H
	DB	0
?getVal@I7041Device@@UAEIPAVProperty@@@Z ENDP		; I7041Device::getVal
_TEXT	ENDS
; Function compile flags: /Odtp /RTCsu /ZI
;	COMDAT ??1I7041Device@@UAE@XZ
_TEXT	SEGMENT
_this$ = -8						; size = 4
??1I7041Device@@UAE@XZ PROC				; I7041Device::~I7041Device, COMDAT
; _this$ = ecx
; File d:\projects\asu\icpdas\tmminios\tmminios\deviceclasses.cpp
; Line 463
	push	ebp
	mov	ebp, esp
	sub	esp, 204				; 000000ccH
	push	ebx
	push	esi
	push	edi
	push	ecx
	lea	edi, DWORD PTR [ebp-204]
	mov	ecx, 51					; 00000033H
	mov	eax, -858993460				; ccccccccH
	rep stosd
	pop	ecx
	mov	DWORD PTR _this$[ebp], ecx
	mov	eax, DWORD PTR _this$[ebp]
	mov	DWORD PTR [eax], OFFSET ??_7I7041Device@@6B@
; Line 465
	mov	ecx, DWORD PTR _this$[ebp]
	call	??1AbstractDevice@@UAE@XZ		; AbstractDevice::~AbstractDevice
	pop	edi
	pop	esi
	pop	ebx
	add	esp, 204				; 000000ccH
	cmp	ebp, esp
	call	__RTC_CheckEsp
	mov	esp, ebp
	pop	ebp
	ret	0
??1I7041Device@@UAE@XZ ENDP				; I7041Device::~I7041Device
_TEXT	ENDS
; Function compile flags: /Odtp /RTCsu /ZI
;	COMDAT ??0I7041Device@@QAE@GG@Z
_TEXT	SEGMENT
tv168 = -280						; size = 4
tv150 = -280						; size = 4
$T2 = -272						; size = 4
$T3 = -260						; size = 4
$T4 = -248						; size = 4
$T5 = -236						; size = 4
_i$ = -32						; size = 4
_this$ = -20						; size = 4
__$EHRec$ = -12						; size = 12
_addrr$ = 8						; size = 2
_evMask$ = 12						; size = 2
??0I7041Device@@QAE@GG@Z PROC				; I7041Device::I7041Device, COMDAT
; _this$ = ecx
; File d:\projects\asu\icpdas\tmminios\tmminios\deviceclasses.cpp
; Line 449
	push	ebp
	mov	ebp, esp
	push	-1
	push	__ehhandler$??0I7041Device@@QAE@GG@Z
	mov	eax, DWORD PTR fs:0
	push	eax
	sub	esp, 268				; 0000010cH
	push	ebx
	push	esi
	push	edi
	push	ecx
	lea	edi, DWORD PTR [ebp-280]
	mov	ecx, 67					; 00000043H
	mov	eax, -858993460				; ccccccccH
	rep stosd
	pop	ecx
	mov	eax, DWORD PTR ___security_cookie
	xor	eax, ebp
	push	eax
	lea	eax, DWORD PTR __$EHRec$[ebp]
	mov	DWORD PTR fs:0, eax
	mov	DWORD PTR _this$[ebp], ecx
	movzx	eax, WORD PTR _evMask$[ebp]
	push	eax
	movzx	ecx, WORD PTR _addrr$[ebp]
	push	ecx
	push	15					; 0000000fH
	mov	ecx, DWORD PTR _this$[ebp]
	call	??0AbstractDevice@@IAE@FGG@Z		; AbstractDevice::AbstractDevice
	mov	DWORD PTR __$EHRec$[ebp+8], 0
	mov	eax, DWORD PTR _this$[ebp]
	mov	DWORD PTR [eax], OFFSET ??_7I7041Device@@6B@
; Line 450
	mov	DWORD PTR _i$[ebp], 0
; Line 451
	movzx	eax, WORD PTR _addrr$[ebp]
	mov	esi, esp
	push	eax
	push	OFFSET ??_C@_05GAHPNDDB@I7041?$AA@
	push	OFFSET ??_C@_09KPBEDMKF@?$CFs?5ch?3?5?$CFd?$AA@
	mov	ecx, DWORD PTR _this$[ebp]
	add	ecx, 24					; 00000018H
	push	ecx
	call	DWORD PTR __imp__sprintf
	add	esp, 16					; 00000010H
	cmp	esi, esp
	call	__RTC_CheckEsp
; Line 452
	mov	eax, DWORD PTR _this$[ebp]
	mov	DWORD PTR [eax+140], 4
; Line 454
	mov	DWORD PTR _i$[ebp], 0
	jmp	SHORT $LN3@I7041Devic
$LN2@I7041Devic:
	mov	eax, DWORD PTR _i$[ebp]
	add	eax, 1
	mov	DWORD PTR _i$[ebp], eax
$LN3@I7041Devic:
	cmp	DWORD PTR _i$[ebp], 14			; 0000000eH
	jge	SHORT $LN1@I7041Devic
; Line 456
	push	172					; 000000acH
	call	??2@YAPAXI@Z				; operator new
	add	esp, 4
	mov	DWORD PTR $T3[ebp], eax
	mov	BYTE PTR __$EHRec$[ebp+8], 1
	cmp	DWORD PTR $T3[ebp], 0
	je	SHORT $LN6@I7041Devic
	movzx	eax, WORD PTR _i$[ebp]
	push	eax
	mov	ecx, DWORD PTR $T3[ebp]
	call	??0I7041DiscreteProperty@@QAE@F@Z	; I7041DiscreteProperty::I7041DiscreteProperty
	mov	DWORD PTR tv150[ebp], eax
	jmp	SHORT $LN7@I7041Devic
$LN6@I7041Devic:
	mov	DWORD PTR tv150[ebp], 0
$LN7@I7041Devic:
	mov	ecx, DWORD PTR tv150[ebp]
	mov	DWORD PTR $T2[ebp], ecx
	mov	BYTE PTR __$EHRec$[ebp+8], 0
	mov	edx, DWORD PTR _this$[ebp]
	mov	eax, DWORD PTR [edx+132]
	mov	ecx, DWORD PTR _i$[ebp]
	mov	edx, DWORD PTR $T2[ebp]
	mov	DWORD PTR [eax+ecx*4], edx
; Line 457
	jmp	SHORT $LN2@I7041Devic
$LN1@I7041Devic:
; Line 459
	push	168					; 000000a8H
	call	??2@YAPAXI@Z				; operator new
	add	esp, 4
	mov	DWORD PTR $T5[ebp], eax
	mov	BYTE PTR __$EHRec$[ebp+8], 2
	cmp	DWORD PTR $T5[ebp], 0
	je	SHORT $LN8@I7041Devic
	mov	ecx, DWORD PTR $T5[ebp]
	call	??0ErrorProperty@@QAE@XZ		; ErrorProperty::ErrorProperty
	mov	DWORD PTR tv168[ebp], eax
	jmp	SHORT $LN9@I7041Devic
$LN8@I7041Devic:
	mov	DWORD PTR tv168[ebp], 0
$LN9@I7041Devic:
	mov	eax, DWORD PTR tv168[ebp]
	mov	DWORD PTR $T4[ebp], eax
	mov	BYTE PTR __$EHRec$[ebp+8], 0
	mov	ecx, 4
	imul	ecx, 14					; 0000000eH
	mov	edx, DWORD PTR _this$[ebp]
	mov	eax, DWORD PTR [edx+132]
	mov	edx, DWORD PTR $T4[ebp]
	mov	DWORD PTR [ecx+eax], edx
; Line 460
	mov	DWORD PTR __$EHRec$[ebp+8], -1
	mov	eax, DWORD PTR _this$[ebp]
	mov	ecx, DWORD PTR __$EHRec$[ebp]
	mov	DWORD PTR fs:0, ecx
	pop	ecx
	pop	edi
	pop	esi
	pop	ebx
	add	esp, 280				; 00000118H
	cmp	ebp, esp
	call	__RTC_CheckEsp
	mov	esp, ebp
	pop	ebp
	ret	8
_TEXT	ENDS
;	COMDAT text$x
text$x	SEGMENT
__unwindfunclet$??0I7041Device@@QAE@GG@Z$0:
	mov	ecx, DWORD PTR _this$[ebp]
	jmp	??1AbstractDevice@@UAE@XZ		; AbstractDevice::~AbstractDevice
__unwindfunclet$??0I7041Device@@QAE@GG@Z$1:
	mov	eax, DWORD PTR $T3[ebp]
	push	eax
	call	??3@YAXPAX@Z				; operator delete
	pop	ecx
	ret	0
__unwindfunclet$??0I7041Device@@QAE@GG@Z$2:
	mov	eax, DWORD PTR $T5[ebp]
	push	eax
	call	??3@YAXPAX@Z				; operator delete
	pop	ecx
	ret	0
__ehhandler$??0I7041Device@@QAE@GG@Z:
	mov	edx, DWORD PTR [esp+8]
	lea	eax, DWORD PTR [edx+12]
	mov	ecx, DWORD PTR [edx-284]
	xor	ecx, eax
	call	@__security_check_cookie@4
	mov	eax, OFFSET __ehfuncinfo$??0I7041Device@@QAE@GG@Z
	jmp	___CxxFrameHandler3
text$x	ENDS
??0I7041Device@@QAE@GG@Z ENDP				; I7041Device::I7041Device
; Function compile flags: /Odtp /RTCsu /ZI
;	COMDAT ??_GI7002Device@@UAEPAXI@Z
_TEXT	SEGMENT
_this$ = -8						; size = 4
___flags$ = 8						; size = 4
??_GI7002Device@@UAEPAXI@Z PROC				; I7002Device::`scalar deleting destructor', COMDAT
; _this$ = ecx
	push	ebp
	mov	ebp, esp
	sub	esp, 204				; 000000ccH
	push	ebx
	push	esi
	push	edi
	push	ecx
	lea	edi, DWORD PTR [ebp-204]
	mov	ecx, 51					; 00000033H
	mov	eax, -858993460				; ccccccccH
	rep stosd
	pop	ecx
	mov	DWORD PTR _this$[ebp], ecx
	mov	ecx, DWORD PTR _this$[ebp]
	call	??1I7002Device@@UAE@XZ			; I7002Device::~I7002Device
	mov	eax, DWORD PTR ___flags$[ebp]
	and	eax, 1
	je	SHORT $LN1@scalar
	mov	eax, DWORD PTR _this$[ebp]
	push	eax
	call	??3@YAXPAX@Z				; operator delete
	add	esp, 4
$LN1@scalar:
	mov	eax, DWORD PTR _this$[ebp]
	pop	edi
	pop	esi
	pop	ebx
	add	esp, 204				; 000000ccH
	cmp	ebp, esp
	call	__RTC_CheckEsp
	mov	esp, ebp
	pop	ebp
	ret	4
??_GI7002Device@@UAEPAXI@Z ENDP				; I7002Device::`scalar deleting destructor'
_TEXT	ENDS
; Function compile flags: /Odtp /RTCsu /ZI
;	COMDAT ?setVal@I7002Device@@UAEIPAVProperty@@@Z
_TEXT	SEGMENT
$T1 = -256						; size = 16
_sv$2 = -40						; size = 8
_property$3 = -24					; size = 4
_this$ = -12						; size = 4
__$ArrayPad$ = -4					; size = 4
_prop$ = 8						; size = 4
?setVal@I7002Device@@UAEIPAVProperty@@@Z PROC		; I7002Device::setVal, COMDAT
; _this$ = ecx
; File d:\projects\asu\icpdas\tmminios\tmminios\deviceclasses.cpp
; Line 432
	push	ebp
	mov	ebp, esp
	sub	esp, 260				; 00000104H
	push	ebx
	push	esi
	push	edi
	push	ecx
	lea	edi, DWORD PTR [ebp-260]
	mov	ecx, 65					; 00000041H
	mov	eax, -858993460				; ccccccccH
	rep stosd
	pop	ecx
	mov	eax, DWORD PTR ___security_cookie
	xor	eax, ebp
	mov	DWORD PTR __$ArrayPad$[ebp], eax
	mov	DWORD PTR _this$[ebp], ecx
; Line 433
	mov	eax, DWORD PTR _prop$[ebp]
	cmp	DWORD PTR [eax+108], 106		; 0000006aH
	jne	SHORT $LN1@setVal
; Line 435
	mov	eax, DWORD PTR _prop$[ebp]
	mov	DWORD PTR _property$3[ebp], eax
; Line 436
	push	899					; 00000383H
	push	1
	lea	ecx, DWORD PTR _sv$2[ebp]
	call	??0SlaveInformation@@QAE@W4regType@@J@Z	; SlaveInformation::SlaveInformation
; Line 437
	mov	ecx, DWORD PTR _property$3[ebp]
	call	?getValueBool@Property@@QAE?AW4bool_t@@XZ ; Property::getValueBool
	push	eax
	lea	ecx, DWORD PTR $T1[ebp]
	call	??0uValue@@QAE@K@Z			; uValue::uValue
	lea	eax, DWORD PTR $T1[ebp]
	push	eax
	mov	ecx, DWORD PTR _sv$2[ebp+4]
	push	ecx
	mov	edx, DWORD PTR _sv$2[ebp]
	push	edx
	mov	eax, DWORD PTR _this$[ebp]
	mov	ecx, DWORD PTR [eax+12]
	call	?setCoils@SlaveFactory@@QAEXUSlaveInformation@@ABTuValue@@@Z ; SlaveFactory::setCoils
; Line 438
	push	0
	push	1000					; 000003e8H
	push	1
	mov	eax, DWORD PTR _property$3[ebp]
	movsx	ecx, WORD PTR [eax+168]
	push	ecx
	push	899					; 00000383H
	push	5
	mov	ecx, DWORD PTR _this$[ebp]
	call	?getAddress@AbstractDevice@@QAEGXZ	; AbstractDevice::getAddress
	movzx	edx, ax
	push	edx
	push	2
	call	?ModbusRTU_Master@@YAHHHHHHHHH@Z	; ModbusRTU_Master
	add	esp, 32					; 00000020H
	mov	ecx, DWORD PTR _prop$[ebp]
	mov	DWORD PTR [ecx+116], eax
$LN1@setVal:
; Line 442
	mov	eax, DWORD PTR _prop$[ebp]
	mov	eax, DWORD PTR [eax+116]
; Line 443
	push	edx
	mov	ecx, ebp
	push	eax
	lea	edx, DWORD PTR $LN6@setVal
	call	@_RTC_CheckStackVars@8
	pop	eax
	pop	edx
	pop	edi
	pop	esi
	pop	ebx
	mov	ecx, DWORD PTR __$ArrayPad$[ebp]
	xor	ecx, ebp
	call	@__security_check_cookie@4
	add	esp, 260				; 00000104H
	cmp	ebp, esp
	call	__RTC_CheckEsp
	mov	esp, ebp
	pop	ebp
	ret	4
	npad	1
$LN6@setVal:
	DD	1
	DD	$LN5@setVal
$LN5@setVal:
	DD	-40					; ffffffd8H
	DD	8
	DD	$LN4@setVal
$LN4@setVal:
	DB	115					; 00000073H
	DB	118					; 00000076H
	DB	0
?setVal@I7002Device@@UAEIPAVProperty@@@Z ENDP		; I7002Device::setVal
_TEXT	ENDS
; Function compile flags: /Odtp /RTCsu /ZI
;	COMDAT ?getVal@I7002Device@@UAEIPAVProperty@@@Z
_TEXT	SEGMENT
$T1 = -412						; size = 16
$T2 = -388						; size = 16
$T3 = -364						; size = 16
$T4 = -340						; size = 16
_sv$5 = -124						; size = 8
_property$6 = -108					; size = 4
_sv$7 = -96						; size = 8
_property$8 = -80					; size = 4
_sv$9 = -68						; size = 8
_property$10 = -52					; size = 4
_sv$11 = -40						; size = 8
_property$12 = -24					; size = 4
_this$ = -12						; size = 4
__$ArrayPad$ = -4					; size = 4
_prop$ = 8						; size = 4
?getVal@I7002Device@@UAEIPAVProperty@@@Z PROC		; I7002Device::getVal, COMDAT
; _this$ = ecx
; File d:\projects\asu\icpdas\tmminios\tmminios\deviceclasses.cpp
; Line 378
	push	ebp
	mov	ebp, esp
	sub	esp, 416				; 000001a0H
	push	ebx
	push	esi
	push	edi
	push	ecx
	lea	edi, DWORD PTR [ebp-416]
	mov	ecx, 104				; 00000068H
	mov	eax, -858993460				; ccccccccH
	rep stosd
	pop	ecx
	mov	eax, DWORD PTR ___security_cookie
	xor	eax, ebp
	mov	DWORD PTR __$ArrayPad$[ebp], eax
	mov	DWORD PTR _this$[ebp], ecx
; Line 379
	mov	eax, DWORD PTR _prop$[ebp]
	cmp	DWORD PTR [eax+108], 105		; 00000069H
	jne	$LN9@getVal
; Line 381
	mov	eax, DWORD PTR _prop$[ebp]
	cmp	DWORD PTR [eax+164], 0
	jne	$LN8@getVal
; Line 383
	mov	eax, DWORD PTR _prop$[ebp]
	mov	DWORD PTR _property$12[ebp], eax
; Line 384
	push	0
	push	1000					; 000003e8H
	push	1
	mov	eax, DWORD PTR _property$12[ebp]
	movsx	ecx, WORD PTR [eax+168]
	add	ecx, 32					; 00000020H
	push	ecx
	push	899					; 00000383H
	push	1
	mov	ecx, DWORD PTR _this$[ebp]
	call	?getAddress@AbstractDevice@@QAEGXZ	; AbstractDevice::getAddress
	movzx	edx, ax
	push	edx
	push	2
	call	?ModbusRTU_Master@@YAHHHHHHHHH@Z	; ModbusRTU_Master
	add	esp, 32					; 00000020H
	mov	ecx, DWORD PTR _prop$[ebp]
	mov	DWORD PTR [ecx+112], eax
; Line 385
	push	899					; 00000383H
	push	1
	lea	ecx, DWORD PTR _sv$11[ebp]
	call	??0SlaveInformation@@QAE@W4regType@@J@Z	; SlaveInformation::SlaveInformation
; Line 387
	push	2
	mov	eax, DWORD PTR _sv$11[ebp+4]
	push	eax
	mov	ecx, DWORD PTR _sv$11[ebp]
	push	ecx
	lea	edx, DWORD PTR $T1[ebp]
	push	edx
	mov	eax, DWORD PTR _this$[ebp]
	mov	ecx, DWORD PTR [eax+12]
	call	?getCoils@SlaveFactory@@QAE?ATuValue@@USlaveInformation@@I@Z ; SlaveFactory::getCoils
	mov	ecx, 4
	imul	ecx, 0
	mov	edx, DWORD PTR [eax+ecx]
	push	edx
	mov	ecx, DWORD PTR _prop$[ebp]
	call	?setValueBool@Property@@QAEXW4bool_t@@@Z ; Property::setValueBool
; Line 391
	jmp	$LN7@getVal
$LN8@getVal:
; Line 393
	mov	eax, DWORD PTR _prop$[ebp]
	mov	DWORD PTR _property$10[ebp], eax
; Line 394
	push	0
	push	1000					; 000003e8H
	push	1
	mov	eax, DWORD PTR _property$10[ebp]
	movsx	ecx, WORD PTR [eax+168]
	add	ecx, 96					; 00000060H
	push	ecx
	push	899					; 00000383H
	push	3
	mov	ecx, DWORD PTR _this$[ebp]
	call	?getAddress@AbstractDevice@@QAEGXZ	; AbstractDevice::getAddress
	movzx	edx, ax
	push	edx
	push	2
	call	?ModbusRTU_Master@@YAHHHHHHHHH@Z	; ModbusRTU_Master
	add	esp, 32					; 00000020H
	mov	ecx, DWORD PTR _prop$[ebp]
	mov	DWORD PTR [ecx+112], eax
; Line 395
	push	899					; 00000383H
	push	4
	lea	ecx, DWORD PTR _sv$9[ebp]
	call	??0SlaveInformation@@QAE@W4regType@@J@Z	; SlaveInformation::SlaveInformation
; Line 397
	push	2
	mov	eax, DWORD PTR _sv$9[ebp+4]
	push	eax
	mov	ecx, DWORD PTR _sv$9[ebp]
	push	ecx
	lea	edx, DWORD PTR $T2[ebp]
	push	edx
	mov	eax, DWORD PTR _this$[ebp]
	mov	ecx, DWORD PTR [eax+12]
	call	?getHoldingRegisters@SlaveFactory@@QAE?ATuValue@@USlaveInformation@@I@Z ; SlaveFactory::getHoldingRegisters
	mov	ecx, 2
	imul	ecx, 0
	movsx	esi, WORD PTR [eax+ecx]
	mov	ecx, DWORD PTR _prop$[ebp]
	call	?getNativeValue@Property@@QAEPAXXZ	; Property::getNativeValue
	mov	DWORD PTR [eax], esi
$LN7@getVal:
; Line 400
	jmp	$LN1@getVal
$LN9@getVal:
; Line 402
	mov	eax, DWORD PTR _prop$[ebp]
	cmp	DWORD PTR [eax+108], 106		; 0000006aH
	jne	$LN5@getVal
; Line 404
	mov	eax, DWORD PTR _prop$[ebp]
	mov	DWORD PTR _property$8[ebp], eax
; Line 405
	push	0
	push	1000					; 000003e8H
	push	1
	mov	eax, DWORD PTR _property$8[ebp]
	movsx	ecx, WORD PTR [eax+168]
	push	ecx
	push	899					; 00000383H
	push	2
	mov	ecx, DWORD PTR _this$[ebp]
	call	?getAddress@AbstractDevice@@QAEGXZ	; AbstractDevice::getAddress
	movzx	edx, ax
	push	edx
	push	2
	call	?ModbusRTU_Master@@YAHHHHHHHHH@Z	; ModbusRTU_Master
	add	esp, 32					; 00000020H
	mov	ecx, DWORD PTR _prop$[ebp]
	mov	DWORD PTR [ecx+112], eax
; Line 406
	push	899					; 00000383H
	push	0
	lea	ecx, DWORD PTR _sv$7[ebp]
	call	??0SlaveInformation@@QAE@W4regType@@J@Z	; SlaveInformation::SlaveInformation
; Line 408
	push	2
	mov	eax, DWORD PTR _sv$7[ebp+4]
	push	eax
	mov	ecx, DWORD PTR _sv$7[ebp]
	push	ecx
	lea	edx, DWORD PTR $T3[ebp]
	push	edx
	mov	eax, DWORD PTR _this$[ebp]
	mov	ecx, DWORD PTR [eax+12]
	call	?getDisreteInput@SlaveFactory@@QAE?ATuValue@@USlaveInformation@@I@Z ; SlaveFactory::getDisreteInput
	mov	ecx, 4
	imul	ecx, 0
	mov	edx, DWORD PTR [eax+ecx]
	push	edx
	mov	ecx, DWORD PTR _prop$[ebp]
	call	?setValueBool@Property@@QAEXW4bool_t@@@Z ; Property::setValueBool
	jmp	$LN1@getVal
$LN5@getVal:
; Line 412
	mov	eax, DWORD PTR _prop$[ebp]
	cmp	DWORD PTR [eax+108], 107		; 0000006bH
	jne	$LN3@getVal
; Line 414
	mov	eax, DWORD PTR _prop$[ebp]
	mov	DWORD PTR _property$6[ebp], eax
; Line 415
	push	0
	push	1000					; 000003e8H
	push	1
	mov	eax, DWORD PTR _property$6[ebp]
	movsx	ecx, WORD PTR [eax+168]
	push	ecx
	push	899					; 00000383H
	push	4
	mov	ecx, DWORD PTR _this$[ebp]
	call	?getAddress@AbstractDevice@@QAEGXZ	; AbstractDevice::getAddress
	movzx	edx, ax
	push	edx
	push	2
	call	?ModbusRTU_Master@@YAHHHHHHHHH@Z	; ModbusRTU_Master
	add	esp, 32					; 00000020H
	mov	ecx, DWORD PTR _prop$[ebp]
	mov	DWORD PTR [ecx+112], eax
; Line 416
	push	899					; 00000383H
	push	3
	lea	ecx, DWORD PTR _sv$5[ebp]
	call	??0SlaveInformation@@QAE@W4regType@@J@Z	; SlaveInformation::SlaveInformation
; Line 418
	push	2
	mov	eax, DWORD PTR _sv$5[ebp+4]
	push	eax
	mov	ecx, DWORD PTR _sv$5[ebp]
	push	ecx
	lea	edx, DWORD PTR $T4[ebp]
	push	edx
	mov	eax, DWORD PTR _this$[ebp]
	mov	ecx, DWORD PTR [eax+12]
	call	?getInputRegisters@SlaveFactory@@QAE?ATuValue@@USlaveInformation@@I@Z ; SlaveFactory::getInputRegisters
	mov	ecx, 2
	imul	ecx, 0
	movsx	edx, WORD PTR [eax+ecx]
	cvtsi2ss xmm0, edx
	divss	xmm0, DWORD PTR __real@447a0000
	push	ecx
	movss	DWORD PTR [esp], xmm0
	mov	ecx, DWORD PTR _prop$[ebp]
	call	?setValueFloat@Property@@QAEXM@Z	; Property::setValueFloat
	jmp	SHORT $LN1@getVal
$LN3@getVal:
; Line 422
	mov	eax, DWORD PTR _prop$[ebp]
	cmp	DWORD PTR [eax+108], 109		; 0000006dH
	jne	SHORT $LN1@getVal
; Line 424
	mov	eax, DWORD PTR _prop$[ebp]
	mov	ecx, DWORD PTR [eax+112]
	push	ecx
	mov	ecx, DWORD PTR _prop$[ebp]
	call	?setValueUnsignedLong@Property@@QAEXK@Z	; Property::setValueUnsignedLong
$LN1@getVal:
; Line 428
	mov	eax, DWORD PTR _prop$[ebp]
	mov	eax, DWORD PTR [eax+112]
; Line 429
	push	edx
	mov	ecx, ebp
	push	eax
	lea	edx, DWORD PTR $LN17@getVal
	call	@_RTC_CheckStackVars@8
	pop	eax
	pop	edx
	pop	edi
	pop	esi
	pop	ebx
	mov	ecx, DWORD PTR __$ArrayPad$[ebp]
	xor	ecx, ebp
	call	@__security_check_cookie@4
	add	esp, 416				; 000001a0H
	cmp	ebp, esp
	call	__RTC_CheckEsp
	mov	esp, ebp
	pop	ebp
	ret	4
	npad	2
$LN17@getVal:
	DD	4
	DD	$LN16@getVal
$LN16@getVal:
	DD	-40					; ffffffd8H
	DD	8
	DD	$LN12@getVal
	DD	-68					; ffffffbcH
	DD	8
	DD	$LN13@getVal
	DD	-96					; ffffffa0H
	DD	8
	DD	$LN14@getVal
	DD	-124					; ffffff84H
	DD	8
	DD	$LN15@getVal
$LN15@getVal:
	DB	115					; 00000073H
	DB	118					; 00000076H
	DB	0
$LN14@getVal:
	DB	115					; 00000073H
	DB	118					; 00000076H
	DB	0
$LN13@getVal:
	DB	115					; 00000073H
	DB	118					; 00000076H
	DB	0
$LN12@getVal:
	DB	115					; 00000073H
	DB	118					; 00000076H
	DB	0
?getVal@I7002Device@@UAEIPAVProperty@@@Z ENDP		; I7002Device::getVal
_TEXT	ENDS
; Function compile flags: /Odtp /RTCsu /ZI
;	COMDAT ??1I7002Device@@UAE@XZ
_TEXT	SEGMENT
_this$ = -8						; size = 4
??1I7002Device@@UAE@XZ PROC				; I7002Device::~I7002Device, COMDAT
; _this$ = ecx
; File d:\projects\asu\icpdas\tmminios\tmminios\deviceclasses.cpp
; Line 373
	push	ebp
	mov	ebp, esp
	sub	esp, 204				; 000000ccH
	push	ebx
	push	esi
	push	edi
	push	ecx
	lea	edi, DWORD PTR [ebp-204]
	mov	ecx, 51					; 00000033H
	mov	eax, -858993460				; ccccccccH
	rep stosd
	pop	ecx
	mov	DWORD PTR _this$[ebp], ecx
	mov	eax, DWORD PTR _this$[ebp]
	mov	DWORD PTR [eax], OFFSET ??_7I7002Device@@6B@
; Line 375
	mov	ecx, DWORD PTR _this$[ebp]
	call	??1AbstractDevice@@UAE@XZ		; AbstractDevice::~AbstractDevice
	pop	edi
	pop	esi
	pop	ebx
	add	esp, 204				; 000000ccH
	cmp	ebp, esp
	call	__RTC_CheckEsp
	mov	esp, ebp
	pop	ebp
	ret	0
??1I7002Device@@UAE@XZ ENDP				; I7002Device::~I7002Device
_TEXT	ENDS
; Function compile flags: /Odtp /RTCsu /ZI
;	COMDAT ??0I7002Device@@QAE@GG@Z
_TEXT	SEGMENT
tv214 = -328						; size = 4
tv196 = -328						; size = 4
tv173 = -328						; size = 4
tv150 = -328						; size = 4
$T2 = -320						; size = 4
$T3 = -308						; size = 4
$T4 = -296						; size = 4
$T5 = -284						; size = 4
$T6 = -272						; size = 4
$T7 = -260						; size = 4
$T8 = -248						; size = 4
$T9 = -236						; size = 4
_i$ = -32						; size = 4
_this$ = -20						; size = 4
__$EHRec$ = -12						; size = 12
_addrr$ = 8						; size = 2
_evMask$ = 12						; size = 2
??0I7002Device@@QAE@GG@Z PROC				; I7002Device::I7002Device, COMDAT
; _this$ = ecx
; File d:\projects\asu\icpdas\tmminios\tmminios\deviceclasses.cpp
; Line 349
	push	ebp
	mov	ebp, esp
	push	-1
	push	__ehhandler$??0I7002Device@@QAE@GG@Z
	mov	eax, DWORD PTR fs:0
	push	eax
	sub	esp, 316				; 0000013cH
	push	ebx
	push	esi
	push	edi
	push	ecx
	lea	edi, DWORD PTR [ebp-328]
	mov	ecx, 79					; 0000004fH
	mov	eax, -858993460				; ccccccccH
	rep stosd
	pop	ecx
	mov	eax, DWORD PTR ___security_cookie
	xor	eax, ebp
	push	eax
	lea	eax, DWORD PTR __$EHRec$[ebp]
	mov	DWORD PTR fs:0, eax
	mov	DWORD PTR _this$[ebp], ecx
	movzx	eax, WORD PTR _evMask$[ebp]
	push	eax
	movzx	ecx, WORD PTR _addrr$[ebp]
	push	ecx
	push	14					; 0000000eH
	mov	ecx, DWORD PTR _this$[ebp]
	call	??0AbstractDevice@@IAE@FGG@Z		; AbstractDevice::AbstractDevice
	mov	DWORD PTR __$EHRec$[ebp+8], 0
	mov	eax, DWORD PTR _this$[ebp]
	mov	DWORD PTR [eax], OFFSET ??_7I7002Device@@6B@
; Line 350
	mov	DWORD PTR _i$[ebp], 0
; Line 351
	movzx	eax, WORD PTR _addrr$[ebp]
	mov	esi, esp
	push	eax
	push	OFFSET ??_C@_05EMFLCICO@I7002?$AA@
	push	OFFSET ??_C@_09KPBEDMKF@?$CFs?5ch?3?5?$CFd?$AA@
	mov	ecx, DWORD PTR _this$[ebp]
	add	ecx, 24					; 00000018H
	push	ecx
	call	DWORD PTR __imp__sprintf
	add	esp, 16					; 00000010H
	cmp	esi, esp
	call	__RTC_CheckEsp
; Line 352
	mov	eax, DWORD PTR _this$[ebp]
	mov	DWORD PTR [eax+140], 2
; Line 354
	mov	DWORD PTR _i$[ebp], 0
	jmp	SHORT $LN9@I7002Devic
$LN8@I7002Devic:
	mov	eax, DWORD PTR _i$[ebp]
	add	eax, 1
	mov	DWORD PTR _i$[ebp], eax
$LN9@I7002Devic:
	cmp	DWORD PTR _i$[ebp], 5
	jge	SHORT $LN7@I7002Devic
; Line 356
	push	172					; 000000acH
	call	??2@YAPAXI@Z				; operator new
	add	esp, 4
	mov	DWORD PTR $T3[ebp], eax
	mov	BYTE PTR __$EHRec$[ebp+8], 1
	cmp	DWORD PTR $T3[ebp], 0
	je	SHORT $LN12@I7002Devic
	movzx	eax, WORD PTR _i$[ebp]
	push	eax
	mov	ecx, DWORD PTR $T3[ebp]
	call	??0I7002DiscreteInputProperty@@QAE@F@Z	; I7002DiscreteInputProperty::I7002DiscreteInputProperty
	mov	DWORD PTR tv150[ebp], eax
	jmp	SHORT $LN13@I7002Devic
$LN12@I7002Devic:
	mov	DWORD PTR tv150[ebp], 0
$LN13@I7002Devic:
	mov	ecx, DWORD PTR tv150[ebp]
	mov	DWORD PTR $T2[ebp], ecx
	mov	BYTE PTR __$EHRec$[ebp+8], 0
	mov	edx, DWORD PTR _this$[ebp]
	mov	eax, DWORD PTR [edx+132]
	mov	ecx, DWORD PTR _i$[ebp]
	mov	edx, DWORD PTR $T2[ebp]
	mov	DWORD PTR [eax+ecx*4], edx
; Line 357
	jmp	SHORT $LN8@I7002Devic
$LN7@I7002Devic:
; Line 359
	mov	DWORD PTR _i$[ebp], 5
	jmp	SHORT $LN6@I7002Devic
$LN5@I7002Devic:
	mov	eax, DWORD PTR _i$[ebp]
	add	eax, 1
	mov	DWORD PTR _i$[ebp], eax
$LN6@I7002Devic:
	cmp	DWORD PTR _i$[ebp], 9
	jge	SHORT $LN4@I7002Devic
; Line 361
	push	172					; 000000acH
	call	??2@YAPAXI@Z				; operator new
	add	esp, 4
	mov	DWORD PTR $T5[ebp], eax
	mov	BYTE PTR __$EHRec$[ebp+8], 2
	cmp	DWORD PTR $T5[ebp], 0
	je	SHORT $LN14@I7002Devic
	mov	eax, DWORD PTR _i$[ebp]
	sub	eax, 5
	push	eax
	mov	ecx, DWORD PTR $T5[ebp]
	call	??0I7002AnalogProperty@@QAE@F@Z		; I7002AnalogProperty::I7002AnalogProperty
	mov	DWORD PTR tv173[ebp], eax
	jmp	SHORT $LN15@I7002Devic
$LN14@I7002Devic:
	mov	DWORD PTR tv173[ebp], 0
$LN15@I7002Devic:
	mov	ecx, DWORD PTR tv173[ebp]
	mov	DWORD PTR $T4[ebp], ecx
	mov	BYTE PTR __$EHRec$[ebp+8], 0
	mov	edx, DWORD PTR _this$[ebp]
	mov	eax, DWORD PTR [edx+132]
	mov	ecx, DWORD PTR _i$[ebp]
	mov	edx, DWORD PTR $T4[ebp]
	mov	DWORD PTR [eax+ecx*4], edx
; Line 362
	jmp	SHORT $LN5@I7002Devic
$LN4@I7002Devic:
; Line 364
	mov	DWORD PTR _i$[ebp], 9
	jmp	SHORT $LN3@I7002Devic
$LN2@I7002Devic:
	mov	eax, DWORD PTR _i$[ebp]
	add	eax, 1
	mov	DWORD PTR _i$[ebp], eax
$LN3@I7002Devic:
	cmp	DWORD PTR _i$[ebp], 13			; 0000000dH
	jge	SHORT $LN1@I7002Devic
; Line 366
	push	172					; 000000acH
	call	??2@YAPAXI@Z				; operator new
	add	esp, 4
	mov	DWORD PTR $T7[ebp], eax
	mov	BYTE PTR __$EHRec$[ebp+8], 3
	cmp	DWORD PTR $T7[ebp], 0
	je	SHORT $LN16@I7002Devic
	mov	eax, DWORD PTR _i$[ebp]
	sub	eax, 9
	push	eax
	mov	ecx, DWORD PTR $T7[ebp]
	call	??0I7002DiscreteOutputProperty@@QAE@F@Z	; I7002DiscreteOutputProperty::I7002DiscreteOutputProperty
	mov	DWORD PTR tv196[ebp], eax
	jmp	SHORT $LN17@I7002Devic
$LN16@I7002Devic:
	mov	DWORD PTR tv196[ebp], 0
$LN17@I7002Devic:
	mov	ecx, DWORD PTR tv196[ebp]
	mov	DWORD PTR $T6[ebp], ecx
	mov	BYTE PTR __$EHRec$[ebp+8], 0
	mov	edx, DWORD PTR _this$[ebp]
	mov	eax, DWORD PTR [edx+132]
	mov	ecx, DWORD PTR _i$[ebp]
	mov	edx, DWORD PTR $T6[ebp]
	mov	DWORD PTR [eax+ecx*4], edx
; Line 367
	jmp	SHORT $LN2@I7002Devic
$LN1@I7002Devic:
; Line 369
	push	168					; 000000a8H
	call	??2@YAPAXI@Z				; operator new
	add	esp, 4
	mov	DWORD PTR $T9[ebp], eax
	mov	BYTE PTR __$EHRec$[ebp+8], 4
	cmp	DWORD PTR $T9[ebp], 0
	je	SHORT $LN18@I7002Devic
	mov	ecx, DWORD PTR $T9[ebp]
	call	??0ErrorProperty@@QAE@XZ		; ErrorProperty::ErrorProperty
	mov	DWORD PTR tv214[ebp], eax
	jmp	SHORT $LN19@I7002Devic
$LN18@I7002Devic:
	mov	DWORD PTR tv214[ebp], 0
$LN19@I7002Devic:
	mov	eax, DWORD PTR tv214[ebp]
	mov	DWORD PTR $T8[ebp], eax
	mov	BYTE PTR __$EHRec$[ebp+8], 0
	mov	ecx, 4
	imul	ecx, 13					; 0000000dH
	mov	edx, DWORD PTR _this$[ebp]
	mov	eax, DWORD PTR [edx+132]
	mov	edx, DWORD PTR $T8[ebp]
	mov	DWORD PTR [ecx+eax], edx
; Line 370
	mov	DWORD PTR __$EHRec$[ebp+8], -1
	mov	eax, DWORD PTR _this$[ebp]
	mov	ecx, DWORD PTR __$EHRec$[ebp]
	mov	DWORD PTR fs:0, ecx
	pop	ecx
	pop	edi
	pop	esi
	pop	ebx
	add	esp, 328				; 00000148H
	cmp	ebp, esp
	call	__RTC_CheckEsp
	mov	esp, ebp
	pop	ebp
	ret	8
_TEXT	ENDS
;	COMDAT text$x
text$x	SEGMENT
__unwindfunclet$??0I7002Device@@QAE@GG@Z$0:
	mov	ecx, DWORD PTR _this$[ebp]
	jmp	??1AbstractDevice@@UAE@XZ		; AbstractDevice::~AbstractDevice
__unwindfunclet$??0I7002Device@@QAE@GG@Z$1:
	mov	eax, DWORD PTR $T3[ebp]
	push	eax
	call	??3@YAXPAX@Z				; operator delete
	pop	ecx
	ret	0
__unwindfunclet$??0I7002Device@@QAE@GG@Z$2:
	mov	eax, DWORD PTR $T5[ebp]
	push	eax
	call	??3@YAXPAX@Z				; operator delete
	pop	ecx
	ret	0
__unwindfunclet$??0I7002Device@@QAE@GG@Z$3:
	mov	eax, DWORD PTR $T7[ebp]
	push	eax
	call	??3@YAXPAX@Z				; operator delete
	pop	ecx
	ret	0
__unwindfunclet$??0I7002Device@@QAE@GG@Z$4:
	mov	eax, DWORD PTR $T9[ebp]
	push	eax
	call	??3@YAXPAX@Z				; operator delete
	pop	ecx
	ret	0
__ehhandler$??0I7002Device@@QAE@GG@Z:
	mov	edx, DWORD PTR [esp+8]
	lea	eax, DWORD PTR [edx+12]
	mov	ecx, DWORD PTR [edx-332]
	xor	ecx, eax
	call	@__security_check_cookie@4
	mov	eax, OFFSET __ehfuncinfo$??0I7002Device@@QAE@GG@Z
	jmp	___CxxFrameHandler3
text$x	ENDS
??0I7002Device@@QAE@GG@Z ENDP				; I7002Device::I7002Device
; Function compile flags: /Odtp /RTCsu /ZI
;	COMDAT ??_GX304Device@@UAEPAXI@Z
_TEXT	SEGMENT
_this$ = -8						; size = 4
___flags$ = 8						; size = 4
??_GX304Device@@UAEPAXI@Z PROC				; X304Device::`scalar deleting destructor', COMDAT
; _this$ = ecx
	push	ebp
	mov	ebp, esp
	sub	esp, 204				; 000000ccH
	push	ebx
	push	esi
	push	edi
	push	ecx
	lea	edi, DWORD PTR [ebp-204]
	mov	ecx, 51					; 00000033H
	mov	eax, -858993460				; ccccccccH
	rep stosd
	pop	ecx
	mov	DWORD PTR _this$[ebp], ecx
	mov	ecx, DWORD PTR _this$[ebp]
	call	??1X304Device@@UAE@XZ			; X304Device::~X304Device
	mov	eax, DWORD PTR ___flags$[ebp]
	and	eax, 1
	je	SHORT $LN1@scalar
	mov	eax, DWORD PTR _this$[ebp]
	push	eax
	call	??3@YAXPAX@Z				; operator delete
	add	esp, 4
$LN1@scalar:
	mov	eax, DWORD PTR _this$[ebp]
	pop	edi
	pop	esi
	pop	ebx
	add	esp, 204				; 000000ccH
	cmp	ebp, esp
	call	__RTC_CheckEsp
	mov	esp, ebp
	pop	ebp
	ret	4
??_GX304Device@@UAEPAXI@Z ENDP				; X304Device::`scalar deleting destructor'
_TEXT	ENDS
; Function compile flags: /Odtp /RTCsu /ZI
;	COMDAT ?saveCountsToEEPROM@X304Device@@QAEXPAVProperty@@@Z
_TEXT	SEGMENT
tv235 = -528						; size = 8
tv190 = -528						; size = 8
tv232 = -520						; size = 8
tv187 = -520						; size = 8
_fp$1 = -316						; size = 4
_buff$2 = -304						; size = 200
_checkTime$3 = -96					; size = 4
_checkTime$4 = -84					; size = 4
_checkTime$5 = -72					; size = 4
_checkTime$6 = -60					; size = 4
_checkTime$7 = -48					; size = 4
_discreteProperty$8 = -36				; size = 4
_checkTime$ = -24					; size = 4
_this$ = -12						; size = 4
__$ArrayPad$ = -4					; size = 4
_prop$ = 8						; size = 4
?saveCountsToEEPROM@X304Device@@QAEXPAVProperty@@@Z PROC ; X304Device::saveCountsToEEPROM, COMDAT
; _this$ = ecx
; File d:\projects\asu\icpdas\tmminios\tmminios\deviceclasses.cpp
; Line 258
	push	ebp
	mov	ebp, esp
	sub	esp, 528				; 00000210H
	push	ebx
	push	esi
	push	edi
	push	ecx
	lea	edi, DWORD PTR [ebp-528]
	mov	ecx, 132				; 00000084H
	mov	eax, -858993460				; ccccccccH
	rep stosd
	pop	ecx
	mov	eax, DWORD PTR ___security_cookie
	xor	eax, ebp
	mov	DWORD PTR __$ArrayPad$[ebp], eax
	mov	DWORD PTR _this$[ebp], ecx
; Line 260
	mov	DWORD PTR _checkTime$[ebp], 300		; 0000012cH
; Line 265
	mov	eax, DWORD PTR _prop$[ebp]
	cmp	DWORD PTR [eax+108], 103		; 00000067H
	jne	$LN13@saveCounts
; Line 267
	mov	eax, DWORD PTR _prop$[ebp]
	mov	DWORD PTR _discreteProperty$8[ebp], eax
; Line 268
	call	?GetTimeTicks@@YA_JXZ			; GetTimeTicks
	mov	ecx, DWORD PTR _discreteProperty$8[ebp]
	xor	esi, esi
	sub	eax, DWORD PTR [ecx+180]
	sbb	edx, esi
	mov	ecx, DWORD PTR _checkTime$[ebp]
	xor	esi, esi
	mov	DWORD PTR tv187[ebp], eax
	mov	DWORD PTR tv187[ebp+4], edx
	mov	DWORD PTR tv190[ebp], ecx
	mov	DWORD PTR tv190[ebp+4], esi
	mov	edx, DWORD PTR tv187[ebp+4]
	cmp	edx, DWORD PTR tv190[ebp+4]
	jl	$LN11@saveCounts
	jg	SHORT $LN15@saveCounts
	mov	eax, DWORD PTR tv187[ebp]
	cmp	eax, DWORD PTR tv190[ebp]
	jbe	$LN11@saveCounts
$LN15@saveCounts:
; Line 270
	call	?GetTimeTicks@@YA_JXZ			; GetTimeTicks
	mov	ecx, DWORD PTR _discreteProperty$8[ebp]
	mov	DWORD PTR [ecx+180], eax
; Line 274
	mov	ecx, DWORD PTR _discreteProperty$8[ebp]
	call	?getNativeValue@Property@@QAEPAXXZ	; Property::getNativeValue
	mov	ecx, DWORD PTR _discreteProperty$8[ebp]
	mov	edx, DWORD PTR [eax]
	sub	edx, DWORD PTR [ecx+168]
	mov	eax, DWORD PTR _discreteProperty$8[ebp]
	mov	DWORD PTR [eax+176], edx
; Line 275
	mov	eax, DWORD PTR _discreteProperty$8[ebp]
	cmp	DWORD PTR [eax+176], 0
	jne	SHORT $LN10@saveCounts
; Line 278
	mov	DWORD PTR _checkTime$7[ebp], 3600	; 00000e10H
	jmp	SHORT $LN9@saveCounts
$LN10@saveCounts:
; Line 283
	mov	eax, DWORD PTR _discreteProperty$8[ebp]
	cmp	DWORD PTR [eax+176], 1
	jb	SHORT $LN8@saveCounts
	mov	eax, DWORD PTR _discreteProperty$8[ebp]
	cmp	DWORD PTR [eax+176], 2
	ja	SHORT $LN8@saveCounts
; Line 286
	mov	DWORD PTR _checkTime$6[ebp], 1200	; 000004b0H
	jmp	SHORT $LN9@saveCounts
$LN8@saveCounts:
; Line 291
	mov	eax, DWORD PTR _discreteProperty$8[ebp]
	cmp	DWORD PTR [eax+176], 2
	jbe	SHORT $LN6@saveCounts
	mov	eax, DWORD PTR _discreteProperty$8[ebp]
	cmp	DWORD PTR [eax+176], 5
	ja	SHORT $LN6@saveCounts
; Line 294
	mov	DWORD PTR _checkTime$5[ebp], 600	; 00000258H
	jmp	SHORT $LN9@saveCounts
$LN6@saveCounts:
; Line 299
	mov	eax, DWORD PTR _discreteProperty$8[ebp]
	cmp	DWORD PTR [eax+176], 5
	jbe	SHORT $LN4@saveCounts
	mov	eax, DWORD PTR _discreteProperty$8[ebp]
	cmp	DWORD PTR [eax+176], 10			; 0000000aH
	ja	SHORT $LN4@saveCounts
; Line 302
	mov	DWORD PTR _checkTime$4[ebp], 300	; 0000012cH
	jmp	SHORT $LN9@saveCounts
$LN4@saveCounts:
; Line 307
	mov	eax, DWORD PTR _discreteProperty$8[ebp]
	cmp	DWORD PTR [eax+176], 10			; 0000000aH
	jbe	SHORT $LN9@saveCounts
; Line 310
	mov	DWORD PTR _checkTime$3[ebp], 60		; 0000003cH
$LN9@saveCounts:
; Line 316
	mov	ecx, DWORD PTR _discreteProperty$8[ebp]
	call	?getNativeValue@Property@@QAEPAXXZ	; Property::getNativeValue
	mov	ecx, DWORD PTR _discreteProperty$8[ebp]
	mov	edx, DWORD PTR [eax]
	mov	DWORD PTR [ecx+168], edx
$LN11@saveCounts:
; Line 319
	call	?GetTimeTicks@@YA_JXZ			; GetTimeTicks
	mov	ecx, DWORD PTR _discreteProperty$8[ebp]
	xor	esi, esi
	sub	eax, DWORD PTR [ecx+184]
	sbb	edx, esi
	mov	ecx, DWORD PTR _discreteProperty$8[ebp]
	mov	ecx, DWORD PTR [ecx+172]
	xor	esi, esi
	mov	DWORD PTR tv232[ebp], eax
	mov	DWORD PTR tv232[ebp+4], edx
	mov	DWORD PTR tv235[ebp], ecx
	mov	DWORD PTR tv235[ebp+4], esi
	mov	edx, DWORD PTR tv232[ebp+4]
	cmp	edx, DWORD PTR tv235[ebp+4]
	jl	$LN13@saveCounts
	jg	SHORT $LN16@saveCounts
	mov	eax, DWORD PTR tv232[ebp]
	cmp	eax, DWORD PTR tv235[ebp]
	jbe	$LN13@saveCounts
$LN16@saveCounts:
; Line 321
	call	?GetTimeTicks@@YA_JXZ			; GetTimeTicks
	mov	ecx, DWORD PTR _discreteProperty$8[ebp]
	mov	DWORD PTR [ecx+184], eax
; Line 328
	mov	eax, DWORD PTR _discreteProperty$8[ebp]
	movsx	ecx, WORD PTR [eax+188]
	mov	esi, esp
	push	ecx
	push	OFFSET ??_C@_0BA@HOEGDEMG@tmp_x304ch?4b_?$CFd?$AA@
	lea	edx, DWORD PTR _buff$2[ebp]
	push	edx
	call	DWORD PTR __imp__sprintf
	add	esp, 12					; 0000000cH
	cmp	esi, esp
	call	__RTC_CheckEsp
; Line 329
	mov	esi, esp
	push	OFFSET ??_C@_02GMLFBBN@wb?$AA@
	lea	eax, DWORD PTR _buff$2[ebp]
	push	eax
	call	DWORD PTR __imp__fopen
	add	esp, 8
	cmp	esi, esp
	call	__RTC_CheckEsp
	mov	DWORD PTR _fp$1[ebp], eax
; Line 331
	mov	esi, esp
	mov	eax, DWORD PTR _fp$1[ebp]
	push	eax
	push	4
	push	4
	mov	ecx, DWORD PTR _discreteProperty$8[ebp]
	call	?getNativeValue@Property@@QAEPAXXZ	; Property::getNativeValue
	push	eax
	call	DWORD PTR __imp__fwrite
	add	esp, 16					; 00000010H
	cmp	esi, esp
	call	__RTC_CheckEsp
; Line 333
	mov	esi, esp
	mov	eax, DWORD PTR _fp$1[ebp]
	push	eax
	call	DWORD PTR __imp__fclose
	add	esp, 4
	cmp	esi, esp
	call	__RTC_CheckEsp
$LN13@saveCounts:
; Line 343
	push	edx
	mov	ecx, ebp
	push	eax
	lea	edx, DWORD PTR $LN19@saveCounts
	call	@_RTC_CheckStackVars@8
	pop	eax
	pop	edx
	pop	edi
	pop	esi
	pop	ebx
	mov	ecx, DWORD PTR __$ArrayPad$[ebp]
	xor	ecx, ebp
	call	@__security_check_cookie@4
	add	esp, 528				; 00000210H
	cmp	ebp, esp
	call	__RTC_CheckEsp
	mov	esp, ebp
	pop	ebp
	ret	4
	npad	2
$LN19@saveCounts:
	DD	1
	DD	$LN18@saveCounts
$LN18@saveCounts:
	DD	-304					; fffffed0H
	DD	200					; 000000c8H
	DD	$LN17@saveCounts
$LN17@saveCounts:
	DB	98					; 00000062H
	DB	117					; 00000075H
	DB	102					; 00000066H
	DB	102					; 00000066H
	DB	0
?saveCountsToEEPROM@X304Device@@QAEXPAVProperty@@@Z ENDP ; X304Device::saveCountsToEEPROM
_TEXT	ENDS
; Function compile flags: /Odtp /RTCsu /ZI
;	COMDAT ?loadSavedCountsFromEEPROM@X304Device@@QAEXXZ
_TEXT	SEGMENT
_fp$1 = -256						; size = 4
_buff$2 = -244						; size = 200
_discreteProperty$3 = -36				; size = 4
_i$4 = -24						; size = 4
_this$ = -12						; size = 4
__$ArrayPad$ = -4					; size = 4
?loadSavedCountsFromEEPROM@X304Device@@QAEXXZ PROC	; X304Device::loadSavedCountsFromEEPROM, COMDAT
; _this$ = ecx
; File d:\projects\asu\icpdas\tmminios\tmminios\deviceclasses.cpp
; Line 225
	push	ebp
	mov	ebp, esp
	sub	esp, 452				; 000001c4H
	push	ebx
	push	esi
	push	edi
	push	ecx
	lea	edi, DWORD PTR [ebp-452]
	mov	ecx, 113				; 00000071H
	mov	eax, -858993460				; ccccccccH
	rep stosd
	pop	ecx
	mov	eax, DWORD PTR ___security_cookie
	xor	eax, ebp
	mov	DWORD PTR __$ArrayPad$[ebp], eax
	mov	DWORD PTR _this$[ebp], ecx
; Line 227
	mov	DWORD PTR _i$4[ebp], 0
	jmp	SHORT $LN5@loadSavedC
$LN4@loadSavedC:
	mov	eax, DWORD PTR _i$4[ebp]
	add	eax, 1
	mov	DWORD PTR _i$4[ebp], eax
$LN5@loadSavedC:
	mov	eax, DWORD PTR _this$[ebp]
	movsx	ecx, WORD PTR [eax+124]
	cmp	DWORD PTR _i$4[ebp], ecx
	jge	$LN6@loadSavedC
; Line 229
	mov	eax, DWORD PTR _this$[ebp]
	mov	ecx, DWORD PTR [eax+132]
	mov	edx, DWORD PTR _i$4[ebp]
	mov	eax, DWORD PTR [ecx+edx*4]
	cmp	DWORD PTR [eax+108], 103		; 00000067H
	jne	$LN2@loadSavedC
; Line 231
	mov	eax, DWORD PTR _this$[ebp]
	mov	ecx, DWORD PTR [eax+132]
	mov	edx, DWORD PTR _i$4[ebp]
	mov	eax, DWORD PTR [ecx+edx*4]
	mov	DWORD PTR _discreteProperty$3[ebp], eax
; Line 236
	mov	eax, DWORD PTR _discreteProperty$3[ebp]
	movsx	ecx, WORD PTR [eax+188]
	mov	esi, esp
	push	ecx
	push	OFFSET ??_C@_0BA@HOEGDEMG@tmp_x304ch?4b_?$CFd?$AA@
	lea	edx, DWORD PTR _buff$2[ebp]
	push	edx
	call	DWORD PTR __imp__sprintf
	add	esp, 12					; 0000000cH
	cmp	esi, esp
	call	__RTC_CheckEsp
; Line 237
	mov	esi, esp
	push	OFFSET ??_C@_02JDPG@rb?$AA@
	lea	eax, DWORD PTR _buff$2[ebp]
	push	eax
	call	DWORD PTR __imp__fopen
	add	esp, 8
	cmp	esi, esp
	call	__RTC_CheckEsp
	mov	DWORD PTR _fp$1[ebp], eax
; Line 239
	cmp	DWORD PTR _fp$1[ebp], 0
	je	SHORT $LN1@loadSavedC
; Line 241
	mov	esi, esp
	mov	eax, DWORD PTR _fp$1[ebp]
	push	eax
	push	4
	push	4
	mov	ecx, DWORD PTR _discreteProperty$3[ebp]
	add	ecx, 168				; 000000a8H
	push	ecx
	call	DWORD PTR __imp__fread
	add	esp, 16					; 00000010H
	cmp	esi, esp
	call	__RTC_CheckEsp
; Line 242
	mov	esi, esp
	mov	eax, DWORD PTR _fp$1[ebp]
	push	eax
	call	DWORD PTR __imp__fclose
	add	esp, 4
	cmp	esi, esp
	call	__RTC_CheckEsp
$LN1@loadSavedC:
; Line 252
	mov	ecx, DWORD PTR _discreteProperty$3[ebp]
	call	?getNativeValue@Property@@QAEPAXXZ	; Property::getNativeValue
	mov	ecx, DWORD PTR _discreteProperty$3[ebp]
	mov	edx, DWORD PTR [ecx+168]
	mov	DWORD PTR [eax], edx
$LN2@loadSavedC:
; Line 254
	jmp	$LN4@loadSavedC
$LN6@loadSavedC:
; Line 255
	push	edx
	mov	ecx, ebp
	push	eax
	lea	edx, DWORD PTR $LN10@loadSavedC
	call	@_RTC_CheckStackVars@8
	pop	eax
	pop	edx
	pop	edi
	pop	esi
	pop	ebx
	mov	ecx, DWORD PTR __$ArrayPad$[ebp]
	xor	ecx, ebp
	call	@__security_check_cookie@4
	add	esp, 452				; 000001c4H
	cmp	ebp, esp
	call	__RTC_CheckEsp
	mov	esp, ebp
	pop	ebp
	ret	0
	npad	1
$LN10@loadSavedC:
	DD	1
	DD	$LN9@loadSavedC
$LN9@loadSavedC:
	DD	-244					; ffffff0cH
	DD	200					; 000000c8H
	DD	$LN8@loadSavedC
$LN8@loadSavedC:
	DB	98					; 00000062H
	DB	117					; 00000075H
	DB	102					; 00000066H
	DB	102					; 00000066H
	DB	0
?loadSavedCountsFromEEPROM@X304Device@@QAEXXZ ENDP	; X304Device::loadSavedCountsFromEEPROM
_TEXT	ENDS
; Function compile flags: /Odtp /RTCsu /ZI
;	COMDAT ?setVal@X304Device@@UAEIPAVProperty@@@Z
_TEXT	SEGMENT
_x304Property$1 = -44					; size = 4
_i$2 = -32						; size = 4
_val$ = -20						; size = 2
_this$ = -8						; size = 4
_prop$ = 8						; size = 4
?setVal@X304Device@@UAEIPAVProperty@@@Z PROC		; X304Device::setVal, COMDAT
; _this$ = ecx
; File d:\projects\asu\icpdas\tmminios\tmminios\deviceclasses.cpp
; Line 199
	push	ebp
	mov	ebp, esp
	sub	esp, 240				; 000000f0H
	push	ebx
	push	esi
	push	edi
	push	ecx
	lea	edi, DWORD PTR [ebp-240]
	mov	ecx, 60					; 0000003cH
	mov	eax, -858993460				; ccccccccH
	rep stosd
	pop	ecx
	mov	DWORD PTR _this$[ebp], ecx
; Line 200
	xor	eax, eax
	mov	WORD PTR _val$[ebp], ax
; Line 202
	mov	DWORD PTR _i$2[ebp], 0
	jmp	SHORT $LN6@setVal
$LN5@setVal:
	mov	eax, DWORD PTR _i$2[ebp]
	add	eax, 1
	mov	DWORD PTR _i$2[ebp], eax
$LN6@setVal:
	mov	eax, DWORD PTR _this$[ebp]
	movsx	ecx, WORD PTR [eax+124]
	cmp	DWORD PTR _i$2[ebp], ecx
	jge	SHORT $LN4@setVal
; Line 204
	mov	eax, DWORD PTR _this$[ebp]
	mov	ecx, DWORD PTR [eax+132]
	mov	edx, DWORD PTR _i$2[ebp]
	mov	eax, DWORD PTR [ecx+edx*4]
	cmp	DWORD PTR [eax+108], 104		; 00000068H
	jne	SHORT $LN3@setVal
; Line 206
	mov	eax, DWORD PTR _this$[ebp]
	mov	ecx, DWORD PTR [eax+132]
	mov	edx, DWORD PTR _i$2[ebp]
	mov	eax, DWORD PTR [ecx+edx*4]
	mov	DWORD PTR _x304Property$1[ebp], eax
; Line 208
	mov	ecx, DWORD PTR _x304Property$1[ebp]
	call	?getValueBool@Property@@QAE?AW4bool_t@@XZ ; Property::getValueBool
	test	eax, eax
	je	SHORT $LN2@setVal
; Line 210
	mov	eax, DWORD PTR _x304Property$1[ebp]
	movsx	ecx, WORD PTR [eax+168]
	push	ecx
	call	?pow_2@@YAKH@Z				; pow_2
	add	esp, 4
	movzx	edx, ax
	movzx	eax, WORD PTR _val$[ebp]
	or	eax, edx
	mov	WORD PTR _val$[ebp], ax
; Line 212
	jmp	SHORT $LN3@setVal
$LN2@setVal:
; Line 214
	mov	eax, DWORD PTR _x304Property$1[ebp]
	movsx	ecx, WORD PTR [eax+168]
	push	ecx
	call	?pow_2@@YAKH@Z				; pow_2
	add	esp, 4
	movzx	edx, ax
	not	edx
	movzx	eax, WORD PTR _val$[ebp]
	and	eax, edx
	mov	WORD PTR _val$[ebp], ax
$LN3@setVal:
; Line 217
	jmp	$LN5@setVal
$LN4@setVal:
; Line 219
	movzx	eax, WORD PTR _val$[ebp]
	push	eax
	call	?X304_Write_All_DO@@YAXI@Z		; X304_Write_All_DO
	add	esp, 4
; Line 221
	xor	eax, eax
; Line 222
	pop	edi
	pop	esi
	pop	ebx
	add	esp, 240				; 000000f0H
	cmp	ebp, esp
	call	__RTC_CheckEsp
	mov	esp, ebp
	pop	ebp
	ret	4
?setVal@X304Device@@UAEIPAVProperty@@@Z ENDP		; X304Device::setVal
_TEXT	ENDS
; Function compile flags: /Odtp /RTCsu /ZI
;	COMDAT ?getVal@X304Device@@UAEIPAVProperty@@@Z
_TEXT	SEGMENT
tv169 = -312						; size = 4
_property$1 = -112					; size = 4
_val$2 = -100						; size = 16
_inf$3 = -76						; size = 8
_property$4 = -60					; size = 4
_property$5 = -48					; size = 4
_discreteOutputValues$6 = -36				; size = 2
_discreteInputValues$7 = -24				; size = 2
_this$ = -12						; size = 4
__$ArrayPad$ = -4					; size = 4
_prop$ = 8						; size = 4
?getVal@X304Device@@UAEIPAVProperty@@@Z PROC		; X304Device::getVal, COMDAT
; _this$ = ecx
; File d:\projects\asu\icpdas\tmminios\tmminios\deviceclasses.cpp
; Line 119
	push	ebp
	mov	ebp, esp
	sub	esp, 312				; 00000138H
	push	ebx
	push	esi
	push	edi
	push	ecx
	lea	edi, DWORD PTR [ebp-312]
	mov	ecx, 78					; 0000004eH
	mov	eax, -858993460				; ccccccccH
	rep stosd
	pop	ecx
	mov	eax, DWORD PTR ___security_cookie
	xor	eax, ebp
	mov	DWORD PTR __$ArrayPad$[ebp], eax
	mov	DWORD PTR _this$[ebp], ecx
; Line 120
	mov	eax, DWORD PTR _this$[ebp]
	movzx	ecx, WORD PTR [eax+144]
	test	ecx, ecx
	jne	$LN17@getVal
; Line 122
	xor	eax, eax
	mov	WORD PTR _discreteInputValues$7[ebp], ax
	xor	eax, eax
	mov	WORD PTR _discreteOutputValues$6[ebp], ax
; Line 123
	call	?X304_DigitalIn@@YAGXZ			; X304_DigitalIn
	mov	WORD PTR _discreteInputValues$7[ebp], ax
; Line 124
	call	?X304_Read_All_DO@@YAGXZ		; X304_Read_All_DO
	mov	WORD PTR _discreteOutputValues$6[ebp], ax
; Line 126
	mov	eax, DWORD PTR _this$[ebp]
	movzx	ecx, WORD PTR [eax+144]
	mov	edx, DWORD PTR _prop$[ebp]
	mov	DWORD PTR [edx+112], ecx
; Line 128
	mov	eax, DWORD PTR _prop$[ebp]
	cmp	DWORD PTR [eax+108], 102		; 00000066H
	jne	SHORT $LN16@getVal
; Line 130
	mov	eax, DWORD PTR _prop$[ebp]
	mov	DWORD PTR _property$5[ebp], eax
; Line 131
	mov	eax, DWORD PTR _property$5[ebp]
	movsx	ecx, WORD PTR [eax+168]
	push	ecx
	call	?X304_AnalogIn@@YAMH@Z			; X304_AnalogIn
	fstp	DWORD PTR [esp]
	mov	ecx, DWORD PTR _prop$[ebp]
	call	?setValueFloat@Property@@QAEXM@Z	; Property::setValueFloat
	jmp	$LN2@getVal
$LN16@getVal:
; Line 133
	mov	eax, DWORD PTR _prop$[ebp]
	cmp	DWORD PTR [eax+108], 103		; 00000067H
	jne	$LN14@getVal
; Line 135
	mov	eax, DWORD PTR _prop$[ebp]
	mov	DWORD PTR _property$4[ebp], eax
; Line 137
	movzx	esi, WORD PTR _discreteInputValues$7[ebp]
	mov	eax, DWORD PTR _property$4[ebp]
	movsx	ecx, WORD PTR [eax+188]
	push	ecx
	call	?pow_2@@YAKH@Z				; pow_2
	add	esp, 4
	movzx	edx, ax
	and	esi, edx
	je	SHORT $LN13@getVal
; Line 139
	push	1
	mov	ecx, DWORD PTR _prop$[ebp]
	call	?setValueInt@Property@@QAEXF@Z		; Property::setValueInt
; Line 141
	jmp	SHORT $LN12@getVal
$LN13@getVal:
; Line 143
	push	0
	mov	ecx, DWORD PTR _prop$[ebp]
	call	?setValueInt@Property@@QAEXF@Z		; Property::setValueInt
$LN12@getVal:
; Line 146
	mov	eax, DWORD PTR _property$4[ebp]
	cmp	DWORD PTR [eax+164], 0
	je	$LN11@getVal
; Line 148
	mov	ecx, DWORD PTR _property$4[ebp]
	call	?getValueBool@Property@@QAE?AW4bool_t@@XZ ; Property::getValueBool
	mov	ecx, 4
	imul	ecx, 0
	mov	edx, DWORD PTR _property$4[ebp]
	cmp	eax, DWORD PTR [edx+ecx+144]
	je	$LN9@getVal
; Line 150
	mov	ecx, DWORD PTR _property$4[ebp]
	call	?getValueBool@Property@@QAE?AW4bool_t@@XZ ; Property::getValueBool
	test	eax, eax
	jne	$LN9@getVal
; Line 152
	mov	ecx, DWORD PTR _property$4[ebp]
	call	?getNativeValue@Property@@QAEPAXXZ	; Property::getNativeValue
	mov	DWORD PTR tv169[ebp], eax
	mov	eax, DWORD PTR tv169[ebp]
	mov	ecx, DWORD PTR [eax]
	add	ecx, 1
	mov	edx, DWORD PTR tv169[ebp]
	mov	DWORD PTR [edx], ecx
; Line 153
	mov	eax, DWORD PTR _property$4[ebp]
	push	eax
	mov	ecx, DWORD PTR _this$[ebp]
	call	?saveCountsToEEPROM@X304Device@@QAEXPAVProperty@@@Z ; X304Device::saveCountsToEEPROM
; Line 155
	push	500					; 000001f4H
	push	3
	lea	ecx, DWORD PTR _inf$3[ebp]
	call	??0SlaveInformation@@QAE@W4regType@@J@Z	; SlaveInformation::SlaveInformation
; Line 156
	mov	eax, DWORD PTR _property$4[ebp]
	mov	ecx, DWORD PTR [eax+168]
	push	ecx
	lea	ecx, DWORD PTR _val$2[ebp]
	call	??0uValue@@QAE@K@Z			; uValue::uValue
; Line 157
	lea	eax, DWORD PTR _val$2[ebp]
	push	eax
	mov	ecx, DWORD PTR _inf$3[ebp+4]
	push	ecx
	mov	edx, DWORD PTR _inf$3[ebp]
	push	edx
	mov	eax, DWORD PTR _this$[ebp]
	mov	ecx, DWORD PTR [eax+12]
	call	?setInputRegisters@SlaveFactory@@QAEXUSlaveInformation@@ABTuValue@@@Z ; SlaveFactory::setInputRegisters
; Line 159
	mov	DWORD PTR _inf$3[ebp+4], 502		; 000001f6H
; Line 160
	mov	eax, DWORD PTR _property$4[ebp]
	mov	ecx, DWORD PTR [eax+176]
	mov	DWORD PTR _val$2[ebp], ecx
; Line 161
	lea	eax, DWORD PTR _val$2[ebp]
	push	eax
	mov	ecx, DWORD PTR _inf$3[ebp+4]
	push	ecx
	mov	edx, DWORD PTR _inf$3[ebp]
	push	edx
	mov	eax, DWORD PTR _this$[ebp]
	mov	ecx, DWORD PTR [eax+12]
	call	?setInputRegisters@SlaveFactory@@QAEXUSlaveInformation@@ABTuValue@@@Z ; SlaveFactory::setInputRegisters
$LN9@getVal:
; Line 165
	jmp	SHORT $LN8@getVal
$LN11@getVal:
; Line 167
	mov	ecx, DWORD PTR _property$4[ebp]
	call	?getNativeValue@Property@@QAEPAXXZ	; Property::getNativeValue
	mov	DWORD PTR [eax], 0
$LN8@getVal:
; Line 170
	mov	ecx, DWORD PTR _property$4[ebp]
	call	?getValueBool@Property@@QAE?AW4bool_t@@XZ ; Property::getValueBool
	mov	ecx, 4
	imul	ecx, 0
	mov	edx, DWORD PTR _property$4[ebp]
	mov	DWORD PTR [edx+ecx+144], eax
	jmp	SHORT $LN2@getVal
$LN14@getVal:
; Line 172
	mov	eax, DWORD PTR _prop$[ebp]
	cmp	DWORD PTR [eax+108], 104		; 00000068H
	jne	SHORT $LN6@getVal
; Line 174
	mov	eax, DWORD PTR _prop$[ebp]
	mov	DWORD PTR _property$1[ebp], eax
; Line 176
	movzx	esi, WORD PTR _discreteOutputValues$6[ebp]
	mov	eax, DWORD PTR _property$1[ebp]
	movsx	ecx, WORD PTR [eax+168]
	push	ecx
	call	?pow_2@@YAKH@Z				; pow_2
	add	esp, 4
	movzx	edx, ax
	and	esi, edx
	je	SHORT $LN5@getVal
; Line 178
	push	1
	mov	ecx, DWORD PTR _prop$[ebp]
	call	?setValueInt@Property@@QAEXF@Z		; Property::setValueInt
; Line 180
	jmp	SHORT $LN4@getVal
$LN5@getVal:
; Line 182
	push	0
	mov	ecx, DWORD PTR _prop$[ebp]
	call	?setValueInt@Property@@QAEXF@Z		; Property::setValueInt
$LN4@getVal:
; Line 183
	jmp	SHORT $LN2@getVal
$LN6@getVal:
; Line 185
	mov	eax, DWORD PTR _prop$[ebp]
	cmp	DWORD PTR [eax+108], 109		; 0000006dH
	jne	SHORT $LN2@getVal
; Line 187
	mov	eax, DWORD PTR _prop$[ebp]
	mov	ecx, DWORD PTR [eax+112]
	push	ecx
	mov	ecx, DWORD PTR _prop$[ebp]
	call	?setValueUnsignedLong@Property@@QAEXK@Z	; Property::setValueUnsignedLong
$LN2@getVal:
; Line 190
	jmp	SHORT $LN1@getVal
$LN17@getVal:
; Line 192
	call	?X304_Init@@YAGXZ			; X304_Init
	mov	ecx, DWORD PTR _this$[ebp]
	mov	WORD PTR [ecx+144], ax
$LN1@getVal:
; Line 195
	mov	eax, DWORD PTR _this$[ebp]
	movzx	eax, WORD PTR [eax+144]
; Line 196
	push	edx
	mov	ecx, ebp
	push	eax
	lea	edx, DWORD PTR $LN23@getVal
	call	@_RTC_CheckStackVars@8
	pop	eax
	pop	edx
	pop	edi
	pop	esi
	pop	ebx
	mov	ecx, DWORD PTR __$ArrayPad$[ebp]
	xor	ecx, ebp
	call	@__security_check_cookie@4
	add	esp, 312				; 00000138H
	cmp	ebp, esp
	call	__RTC_CheckEsp
	mov	esp, ebp
	pop	ebp
	ret	4
	npad	1
$LN23@getVal:
	DD	2
	DD	$LN22@getVal
$LN22@getVal:
	DD	-76					; ffffffb4H
	DD	8
	DD	$LN20@getVal
	DD	-100					; ffffff9cH
	DD	16					; 00000010H
	DD	$LN21@getVal
$LN21@getVal:
	DB	118					; 00000076H
	DB	97					; 00000061H
	DB	108					; 0000006cH
	DB	0
$LN20@getVal:
	DB	105					; 00000069H
	DB	110					; 0000006eH
	DB	102					; 00000066H
	DB	0
?getVal@X304Device@@UAEIPAVProperty@@@Z ENDP		; X304Device::getVal
_TEXT	ENDS
; Function compile flags: /Odtp /RTCsu /ZI
;	COMDAT ??1X304Device@@UAE@XZ
_TEXT	SEGMENT
_this$ = -8						; size = 4
??1X304Device@@UAE@XZ PROC				; X304Device::~X304Device, COMDAT
; _this$ = ecx
; File d:\projects\asu\icpdas\tmminios\tmminios\deviceclasses.cpp
; Line 114
	push	ebp
	mov	ebp, esp
	sub	esp, 204				; 000000ccH
	push	ebx
	push	esi
	push	edi
	push	ecx
	lea	edi, DWORD PTR [ebp-204]
	mov	ecx, 51					; 00000033H
	mov	eax, -858993460				; ccccccccH
	rep stosd
	pop	ecx
	mov	DWORD PTR _this$[ebp], ecx
	mov	eax, DWORD PTR _this$[ebp]
	mov	DWORD PTR [eax], OFFSET ??_7X304Device@@6B@
; Line 116
	mov	ecx, DWORD PTR _this$[ebp]
	call	??1AbstractDevice@@UAE@XZ		; AbstractDevice::~AbstractDevice
	pop	edi
	pop	esi
	pop	ebx
	add	esp, 204				; 000000ccH
	cmp	ebp, esp
	call	__RTC_CheckEsp
	mov	esp, ebp
	pop	ebp
	ret	0
??1X304Device@@UAE@XZ ENDP				; X304Device::~X304Device
_TEXT	ENDS
; Function compile flags: /Odtp /RTCsu /ZI
;	COMDAT ??0X304Device@@QAE@GG@Z
_TEXT	SEGMENT
tv220 = -328						; size = 4
tv202 = -328						; size = 4
tv179 = -328						; size = 4
tv156 = -328						; size = 4
$T2 = -320						; size = 4
$T3 = -308						; size = 4
$T4 = -296						; size = 4
$T5 = -284						; size = 4
$T6 = -272						; size = 4
$T7 = -260						; size = 4
$T8 = -248						; size = 4
$T9 = -236						; size = 4
_i$ = -32						; size = 4
_this$ = -20						; size = 4
__$EHRec$ = -12						; size = 12
_addrr$ = 8						; size = 2
_evMask$ = 12						; size = 2
??0X304Device@@QAE@GG@Z PROC				; X304Device::X304Device, COMDAT
; _this$ = ecx
; File d:\projects\asu\icpdas\tmminios\tmminios\deviceclasses.cpp
; Line 84
	push	ebp
	mov	ebp, esp
	push	-1
	push	__ehhandler$??0X304Device@@QAE@GG@Z
	mov	eax, DWORD PTR fs:0
	push	eax
	sub	esp, 316				; 0000013cH
	push	ebx
	push	esi
	push	edi
	push	ecx
	lea	edi, DWORD PTR [ebp-328]
	mov	ecx, 79					; 0000004fH
	mov	eax, -858993460				; ccccccccH
	rep stosd
	pop	ecx
	mov	eax, DWORD PTR ___security_cookie
	xor	eax, ebp
	push	eax
	lea	eax, DWORD PTR __$EHRec$[ebp]
	mov	DWORD PTR fs:0, eax
	mov	DWORD PTR _this$[ebp], ecx
	movzx	eax, WORD PTR _evMask$[ebp]
	push	eax
	movzx	ecx, WORD PTR _addrr$[ebp]
	push	ecx
	push	12					; 0000000cH
	mov	ecx, DWORD PTR _this$[ebp]
	call	??0AbstractDevice@@IAE@FGG@Z		; AbstractDevice::AbstractDevice
	mov	DWORD PTR __$EHRec$[ebp+8], 0
	mov	eax, DWORD PTR _this$[ebp]
	mov	DWORD PTR [eax], OFFSET ??_7X304Device@@6B@
; Line 85
	xor	eax, eax
	mov	ecx, DWORD PTR _this$[ebp]
	mov	WORD PTR [ecx+144], ax
; Line 86
	mov	DWORD PTR _i$[ebp], 0
; Line 87
	movzx	eax, WORD PTR _addrr$[ebp]
	mov	esi, esp
	push	eax
	push	OFFSET ??_C@_04EMGBMNMA@X304?$AA@
	push	OFFSET ??_C@_09KPBEDMKF@?$CFs?5ch?3?5?$CFd?$AA@
	mov	ecx, DWORD PTR _this$[ebp]
	add	ecx, 24					; 00000018H
	push	ecx
	call	DWORD PTR __imp__sprintf
	add	esp, 16					; 00000010H
	cmp	esi, esp
	call	__RTC_CheckEsp
; Line 88
	mov	eax, DWORD PTR _this$[ebp]
	mov	DWORD PTR [eax+140], 3
; Line 89
	mov	eax, DWORD PTR _this$[ebp]
	mov	DWORD PTR [eax+128], 2
; Line 91
	mov	DWORD PTR _i$[ebp], 0
	jmp	SHORT $LN9@X304Device
$LN8@X304Device:
	mov	eax, DWORD PTR _i$[ebp]
	add	eax, 1
	mov	DWORD PTR _i$[ebp], eax
$LN9@X304Device:
	cmp	DWORD PTR _i$[ebp], 3
	jge	SHORT $LN7@X304Device
; Line 93
	push	172					; 000000acH
	call	??2@YAPAXI@Z				; operator new
	add	esp, 4
	mov	DWORD PTR $T3[ebp], eax
	mov	BYTE PTR __$EHRec$[ebp+8], 1
	cmp	DWORD PTR $T3[ebp], 0
	je	SHORT $LN12@X304Device
	movzx	eax, WORD PTR _i$[ebp]
	push	eax
	mov	ecx, DWORD PTR $T3[ebp]
	call	??0X304AnalogProperty@@QAE@F@Z		; X304AnalogProperty::X304AnalogProperty
	mov	DWORD PTR tv156[ebp], eax
	jmp	SHORT $LN13@X304Device
$LN12@X304Device:
	mov	DWORD PTR tv156[ebp], 0
$LN13@X304Device:
	mov	ecx, DWORD PTR tv156[ebp]
	mov	DWORD PTR $T2[ebp], ecx
	mov	BYTE PTR __$EHRec$[ebp+8], 0
	mov	edx, DWORD PTR _this$[ebp]
	mov	eax, DWORD PTR [edx+132]
	mov	ecx, DWORD PTR _i$[ebp]
	mov	edx, DWORD PTR $T2[ebp]
	mov	DWORD PTR [eax+ecx*4], edx
; Line 94
	jmp	SHORT $LN8@X304Device
$LN7@X304Device:
; Line 96
	mov	DWORD PTR _i$[ebp], 3
	jmp	SHORT $LN6@X304Device
$LN5@X304Device:
	mov	eax, DWORD PTR _i$[ebp]
	add	eax, 1
	mov	DWORD PTR _i$[ebp], eax
$LN6@X304Device:
	cmp	DWORD PTR _i$[ebp], 7
	jge	SHORT $LN4@X304Device
; Line 98
	push	192					; 000000c0H
	call	??2@YAPAXI@Z				; operator new
	add	esp, 4
	mov	DWORD PTR $T5[ebp], eax
	mov	BYTE PTR __$EHRec$[ebp+8], 2
	cmp	DWORD PTR $T5[ebp], 0
	je	SHORT $LN14@X304Device
	mov	eax, DWORD PTR _i$[ebp]
	sub	eax, 3
	push	eax
	mov	ecx, DWORD PTR $T5[ebp]
	call	??0X304DiscreteProperty@@QAE@F@Z	; X304DiscreteProperty::X304DiscreteProperty
	mov	DWORD PTR tv179[ebp], eax
	jmp	SHORT $LN15@X304Device
$LN14@X304Device:
	mov	DWORD PTR tv179[ebp], 0
$LN15@X304Device:
	mov	ecx, DWORD PTR tv179[ebp]
	mov	DWORD PTR $T4[ebp], ecx
	mov	BYTE PTR __$EHRec$[ebp+8], 0
	mov	edx, DWORD PTR _this$[ebp]
	mov	eax, DWORD PTR [edx+132]
	mov	ecx, DWORD PTR _i$[ebp]
	mov	edx, DWORD PTR $T4[ebp]
	mov	DWORD PTR [eax+ecx*4], edx
; Line 99
	jmp	SHORT $LN5@X304Device
$LN4@X304Device:
; Line 101
	mov	DWORD PTR _i$[ebp], 7
	jmp	SHORT $LN3@X304Device
$LN2@X304Device:
	mov	eax, DWORD PTR _i$[ebp]
	add	eax, 1
	mov	DWORD PTR _i$[ebp], eax
$LN3@X304Device:
	cmp	DWORD PTR _i$[ebp], 11			; 0000000bH
	jge	SHORT $LN1@X304Device
; Line 103
	push	172					; 000000acH
	call	??2@YAPAXI@Z				; operator new
	add	esp, 4
	mov	DWORD PTR $T7[ebp], eax
	mov	BYTE PTR __$EHRec$[ebp+8], 3
	cmp	DWORD PTR $T7[ebp], 0
	je	SHORT $LN16@X304Device
	mov	eax, DWORD PTR _i$[ebp]
	sub	eax, 7
	push	eax
	mov	ecx, DWORD PTR $T7[ebp]
	call	??0X304DiscreteOutputProperty@@QAE@F@Z	; X304DiscreteOutputProperty::X304DiscreteOutputProperty
	mov	DWORD PTR tv202[ebp], eax
	jmp	SHORT $LN17@X304Device
$LN16@X304Device:
	mov	DWORD PTR tv202[ebp], 0
$LN17@X304Device:
	mov	ecx, DWORD PTR tv202[ebp]
	mov	DWORD PTR $T6[ebp], ecx
	mov	BYTE PTR __$EHRec$[ebp+8], 0
	mov	edx, DWORD PTR _this$[ebp]
	mov	eax, DWORD PTR [edx+132]
	mov	ecx, DWORD PTR _i$[ebp]
	mov	edx, DWORD PTR $T6[ebp]
	mov	DWORD PTR [eax+ecx*4], edx
; Line 104
	jmp	SHORT $LN2@X304Device
$LN1@X304Device:
; Line 106
	push	168					; 000000a8H
	call	??2@YAPAXI@Z				; operator new
	add	esp, 4
	mov	DWORD PTR $T9[ebp], eax
	mov	BYTE PTR __$EHRec$[ebp+8], 4
	cmp	DWORD PTR $T9[ebp], 0
	je	SHORT $LN18@X304Device
	mov	ecx, DWORD PTR $T9[ebp]
	call	??0ErrorProperty@@QAE@XZ		; ErrorProperty::ErrorProperty
	mov	DWORD PTR tv220[ebp], eax
	jmp	SHORT $LN19@X304Device
$LN18@X304Device:
	mov	DWORD PTR tv220[ebp], 0
$LN19@X304Device:
	mov	eax, DWORD PTR tv220[ebp]
	mov	DWORD PTR $T8[ebp], eax
	mov	BYTE PTR __$EHRec$[ebp+8], 0
	mov	ecx, 4
	imul	ecx, 11					; 0000000bH
	mov	edx, DWORD PTR _this$[ebp]
	mov	eax, DWORD PTR [edx+132]
	mov	edx, DWORD PTR $T8[ebp]
	mov	DWORD PTR [ecx+eax], edx
; Line 108
	call	?X304_Init@@YAGXZ			; X304_Init
	mov	ecx, DWORD PTR _this$[ebp]
	mov	WORD PTR [ecx+144], ax
; Line 110
	mov	ecx, DWORD PTR _this$[ebp]
	call	?loadSavedCountsFromEEPROM@X304Device@@QAEXXZ ; X304Device::loadSavedCountsFromEEPROM
; Line 111
	mov	DWORD PTR __$EHRec$[ebp+8], -1
	mov	eax, DWORD PTR _this$[ebp]
	mov	ecx, DWORD PTR __$EHRec$[ebp]
	mov	DWORD PTR fs:0, ecx
	pop	ecx
	pop	edi
	pop	esi
	pop	ebx
	add	esp, 328				; 00000148H
	cmp	ebp, esp
	call	__RTC_CheckEsp
	mov	esp, ebp
	pop	ebp
	ret	8
_TEXT	ENDS
;	COMDAT text$x
text$x	SEGMENT
__unwindfunclet$??0X304Device@@QAE@GG@Z$0:
	mov	ecx, DWORD PTR _this$[ebp]
	jmp	??1AbstractDevice@@UAE@XZ		; AbstractDevice::~AbstractDevice
__unwindfunclet$??0X304Device@@QAE@GG@Z$1:
	mov	eax, DWORD PTR $T3[ebp]
	push	eax
	call	??3@YAXPAX@Z				; operator delete
	pop	ecx
	ret	0
__unwindfunclet$??0X304Device@@QAE@GG@Z$2:
	mov	eax, DWORD PTR $T5[ebp]
	push	eax
	call	??3@YAXPAX@Z				; operator delete
	pop	ecx
	ret	0
__unwindfunclet$??0X304Device@@QAE@GG@Z$3:
	mov	eax, DWORD PTR $T7[ebp]
	push	eax
	call	??3@YAXPAX@Z				; operator delete
	pop	ecx
	ret	0
__unwindfunclet$??0X304Device@@QAE@GG@Z$4:
	mov	eax, DWORD PTR $T9[ebp]
	push	eax
	call	??3@YAXPAX@Z				; operator delete
	pop	ecx
	ret	0
__ehhandler$??0X304Device@@QAE@GG@Z:
	mov	edx, DWORD PTR [esp+8]
	lea	eax, DWORD PTR [edx+12]
	mov	ecx, DWORD PTR [edx-332]
	xor	ecx, eax
	call	@__security_check_cookie@4
	mov	eax, OFFSET __ehfuncinfo$??0X304Device@@QAE@GG@Z
	jmp	___CxxFrameHandler3
text$x	ENDS
??0X304Device@@QAE@GG@Z ENDP				; X304Device::X304Device
; Function compile flags: /Odtp /RTCsu /ZI
;	COMDAT ??_GBskzhDevice@@UAEPAXI@Z
_TEXT	SEGMENT
_this$ = -8						; size = 4
___flags$ = 8						; size = 4
??_GBskzhDevice@@UAEPAXI@Z PROC				; BskzhDevice::`scalar deleting destructor', COMDAT
; _this$ = ecx
	push	ebp
	mov	ebp, esp
	sub	esp, 204				; 000000ccH
	push	ebx
	push	esi
	push	edi
	push	ecx
	lea	edi, DWORD PTR [ebp-204]
	mov	ecx, 51					; 00000033H
	mov	eax, -858993460				; ccccccccH
	rep stosd
	pop	ecx
	mov	DWORD PTR _this$[ebp], ecx
	mov	ecx, DWORD PTR _this$[ebp]
	call	??1BskzhDevice@@UAE@XZ			; BskzhDevice::~BskzhDevice
	mov	eax, DWORD PTR ___flags$[ebp]
	and	eax, 1
	je	SHORT $LN1@scalar
	mov	eax, DWORD PTR _this$[ebp]
	push	eax
	call	??3@YAXPAX@Z				; operator delete
	add	esp, 4
$LN1@scalar:
	mov	eax, DWORD PTR _this$[ebp]
	pop	edi
	pop	esi
	pop	ebx
	add	esp, 204				; 000000ccH
	cmp	ebp, esp
	call	__RTC_CheckEsp
	mov	esp, ebp
	pop	ebp
	ret	4
??_GBskzhDevice@@UAEPAXI@Z ENDP				; BskzhDevice::`scalar deleting destructor'
_TEXT	ENDS
; Function compile flags: /Odtp /RTCsu /ZI
;	COMDAT ?setVal@BskzhDevice@@UAEIPAVProperty@@@Z
_TEXT	SEGMENT
_this$ = -8						; size = 4
_prop$ = 8						; size = 4
?setVal@BskzhDevice@@UAEIPAVProperty@@@Z PROC		; BskzhDevice::setVal, COMDAT
; _this$ = ecx
; File d:\projects\asu\icpdas\tmminios\tmminios\deviceclasses.cpp
; Line 76
	push	ebp
	mov	ebp, esp
	sub	esp, 204				; 000000ccH
	push	ebx
	push	esi
	push	edi
	push	ecx
	lea	edi, DWORD PTR [ebp-204]
	mov	ecx, 51					; 00000033H
	mov	eax, -858993460				; ccccccccH
	rep stosd
	pop	ecx
	mov	DWORD PTR _this$[ebp], ecx
; Line 77
	xor	eax, eax
; Line 78
	pop	edi
	pop	esi
	pop	ebx
	mov	esp, ebp
	pop	ebp
	ret	4
?setVal@BskzhDevice@@UAEIPAVProperty@@@Z ENDP		; BskzhDevice::setVal
_TEXT	ENDS
; Function compile flags: /Odtp /RTCsu /ZI
;	COMDAT ?getVal@BskzhDevice@@UAEIPAVProperty@@@Z
_TEXT	SEGMENT
$T1 = -492						; size = 16
$T2 = -468						; size = 16
$T3 = -444						; size = 16
$T4 = -420						; size = 16
$T5 = -396						; size = 16
$T6 = -372						; size = 16
_sv$7 = -156						; size = 8
_regs$8 = -140						; size = 48
_sv$9 = -84						; size = 8
_regs$10 = -68						; size = 48
_this$ = -12						; size = 4
__$ArrayPad$ = -4					; size = 4
_prop$ = 8						; size = 4
?getVal@BskzhDevice@@UAEIPAVProperty@@@Z PROC		; BskzhDevice::getVal, COMDAT
; _this$ = ecx
; File d:\projects\asu\icpdas\tmminios\tmminios\deviceclasses.cpp
; Line 30
	push	ebp
	mov	ebp, esp
	sub	esp, 496				; 000001f0H
	push	ebx
	push	esi
	push	edi
	push	ecx
	lea	edi, DWORD PTR [ebp-496]
	mov	ecx, 124				; 0000007cH
	mov	eax, -858993460				; ccccccccH
	rep stosd
	pop	ecx
	mov	eax, DWORD PTR ___security_cookie
	xor	eax, ebp
	mov	DWORD PTR __$ArrayPad$[ebp], eax
	mov	DWORD PTR _this$[ebp], ecx
; Line 31
	mov	eax, DWORD PTR _prop$[ebp]
	cmp	DWORD PTR [eax+108], 100		; 00000064H
	jne	$LN5@getVal
; Line 33
	push	0
	push	1000					; 000003e8H
	push	3
	push	50					; 00000032H
	push	899					; 00000383H
	push	4
	mov	ecx, DWORD PTR _this$[ebp]
	call	?getAddress@AbstractDevice@@QAEGXZ	; AbstractDevice::getAddress
	movzx	eax, ax
	push	eax
	push	2
	call	?ModbusRTU_Master@@YAHHHHHHHHH@Z	; ModbusRTU_Master
	add	esp, 32					; 00000020H
	mov	ecx, DWORD PTR _prop$[ebp]
	mov	DWORD PTR [ecx+112], eax
; Line 35
	push	OFFSET ??_FuValue@@QAEXXZ
	push	3
	push	16					; 00000010H
	lea	eax, DWORD PTR _regs$10[ebp]
	push	eax
	call	??_H@YGXPAXIHP6EPAX0@Z@Z
; Line 36
	push	899					; 00000383H
	push	3
	lea	ecx, DWORD PTR _sv$9[ebp]
	call	??0SlaveInformation@@QAE@W4regType@@J@Z	; SlaveInformation::SlaveInformation
; Line 38
	push	2
	mov	eax, DWORD PTR _sv$9[ebp+4]
	push	eax
	mov	ecx, DWORD PTR _sv$9[ebp]
	push	ecx
	lea	edx, DWORD PTR $T1[ebp]
	push	edx
	mov	eax, DWORD PTR _this$[ebp]
	mov	ecx, DWORD PTR [eax+12]
	call	?getInputRegisters@SlaveFactory@@QAE?ATuValue@@USlaveInformation@@I@Z ; SlaveFactory::getInputRegisters
	mov	ecx, 16					; 00000010H
	imul	ecx, 0
	lea	edx, DWORD PTR _regs$10[ebp+ecx]
	mov	ecx, DWORD PTR [eax]
	mov	DWORD PTR [edx], ecx
	mov	ecx, DWORD PTR [eax+4]
	mov	DWORD PTR [edx+4], ecx
	mov	ecx, DWORD PTR [eax+8]
	mov	DWORD PTR [edx+8], ecx
	mov	eax, DWORD PTR [eax+12]
	mov	DWORD PTR [edx+12], eax
; Line 39
	mov	eax, DWORD PTR _sv$9[ebp+4]
	add	eax, 1
	mov	DWORD PTR _sv$9[ebp+4], eax
; Line 40
	push	2
	mov	eax, DWORD PTR _sv$9[ebp+4]
	push	eax
	mov	ecx, DWORD PTR _sv$9[ebp]
	push	ecx
	lea	edx, DWORD PTR $T2[ebp]
	push	edx
	mov	eax, DWORD PTR _this$[ebp]
	mov	ecx, DWORD PTR [eax+12]
	call	?getInputRegisters@SlaveFactory@@QAE?ATuValue@@USlaveInformation@@I@Z ; SlaveFactory::getInputRegisters
	mov	ecx, 16					; 00000010H
	shl	ecx, 0
	lea	edx, DWORD PTR _regs$10[ebp+ecx]
	mov	ecx, DWORD PTR [eax]
	mov	DWORD PTR [edx], ecx
	mov	ecx, DWORD PTR [eax+4]
	mov	DWORD PTR [edx+4], ecx
	mov	ecx, DWORD PTR [eax+8]
	mov	DWORD PTR [edx+8], ecx
	mov	eax, DWORD PTR [eax+12]
	mov	DWORD PTR [edx+12], eax
; Line 41
	mov	eax, DWORD PTR _sv$9[ebp+4]
	add	eax, 1
	mov	DWORD PTR _sv$9[ebp+4], eax
; Line 42
	push	2
	mov	eax, DWORD PTR _sv$9[ebp+4]
	push	eax
	mov	ecx, DWORD PTR _sv$9[ebp]
	push	ecx
	lea	edx, DWORD PTR $T3[ebp]
	push	edx
	mov	eax, DWORD PTR _this$[ebp]
	mov	ecx, DWORD PTR [eax+12]
	call	?getInputRegisters@SlaveFactory@@QAE?ATuValue@@USlaveInformation@@I@Z ; SlaveFactory::getInputRegisters
	mov	ecx, 16					; 00000010H
	shl	ecx, 1
	lea	edx, DWORD PTR _regs$10[ebp+ecx]
	mov	ecx, DWORD PTR [eax]
	mov	DWORD PTR [edx], ecx
	mov	ecx, DWORD PTR [eax+4]
	mov	DWORD PTR [edx+4], ecx
	mov	ecx, DWORD PTR [eax+8]
	mov	DWORD PTR [edx+8], ecx
	mov	eax, DWORD PTR [eax+12]
	mov	DWORD PTR [edx+12], eax
; Line 44
	mov	eax, 16					; 00000010H
	imul	eax, 0
	cvtsi2sd xmm0, DWORD PTR _regs$10[ebp+eax]
	mulsd	xmm0, QWORD PTR __real@41f0000000000000
	mov	ecx, 16					; 00000010H
	shl	ecx, 0
	cvtsi2sd xmm1, DWORD PTR _regs$10[ebp+ecx]
	mulsd	xmm1, QWORD PTR __real@40f0000000000000
	addsd	xmm0, xmm1
	mov	edx, 16					; 00000010H
	shl	edx, 1
	cvtsi2sd xmm1, DWORD PTR _regs$10[ebp+edx]
	addsd	xmm0, xmm1
	cvtsd2ss xmm0, xmm0
	cvtss2sd xmm0, xmm0
	divsd	xmm0, QWORD PTR __real@416312d000000000
	cvtsd2ss xmm0, xmm0
	push	ecx
	movss	DWORD PTR [esp], xmm0
	mov	ecx, DWORD PTR _prop$[ebp]
	call	?setValueFloat@Property@@QAEXM@Z	; Property::setValueFloat
	jmp	$LN1@getVal
$LN5@getVal:
; Line 49
	mov	eax, DWORD PTR _prop$[ebp]
	cmp	DWORD PTR [eax+108], 101		; 00000065H
	jne	$LN3@getVal
; Line 51
	push	0
	push	1000					; 000003e8H
	push	3
	push	59					; 0000003bH
	push	899					; 00000383H
	push	4
	mov	ecx, DWORD PTR _this$[ebp]
	call	?getAddress@AbstractDevice@@QAEGXZ	; AbstractDevice::getAddress
	movzx	eax, ax
	push	eax
	push	2
	call	?ModbusRTU_Master@@YAHHHHHHHHH@Z	; ModbusRTU_Master
	add	esp, 32					; 00000020H
	mov	ecx, DWORD PTR _prop$[ebp]
	mov	DWORD PTR [ecx+112], eax
; Line 53
	push	OFFSET ??_FuValue@@QAEXXZ
	push	3
	push	16					; 00000010H
	lea	eax, DWORD PTR _regs$8[ebp]
	push	eax
	call	??_H@YGXPAXIHP6EPAX0@Z@Z
; Line 54
	push	899					; 00000383H
	push	3
	lea	ecx, DWORD PTR _sv$7[ebp]
	call	??0SlaveInformation@@QAE@W4regType@@J@Z	; SlaveInformation::SlaveInformation
; Line 56
	push	2
	mov	eax, DWORD PTR _sv$7[ebp+4]
	push	eax
	mov	ecx, DWORD PTR _sv$7[ebp]
	push	ecx
	lea	edx, DWORD PTR $T4[ebp]
	push	edx
	mov	eax, DWORD PTR _this$[ebp]
	mov	ecx, DWORD PTR [eax+12]
	call	?getInputRegisters@SlaveFactory@@QAE?ATuValue@@USlaveInformation@@I@Z ; SlaveFactory::getInputRegisters
	mov	ecx, 16					; 00000010H
	imul	ecx, 0
	lea	edx, DWORD PTR _regs$8[ebp+ecx]
	mov	ecx, DWORD PTR [eax]
	mov	DWORD PTR [edx], ecx
	mov	ecx, DWORD PTR [eax+4]
	mov	DWORD PTR [edx+4], ecx
	mov	ecx, DWORD PTR [eax+8]
	mov	DWORD PTR [edx+8], ecx
	mov	eax, DWORD PTR [eax+12]
	mov	DWORD PTR [edx+12], eax
; Line 57
	mov	eax, DWORD PTR _sv$7[ebp+4]
	add	eax, 1
	mov	DWORD PTR _sv$7[ebp+4], eax
; Line 58
	push	2
	mov	eax, DWORD PTR _sv$7[ebp+4]
	push	eax
	mov	ecx, DWORD PTR _sv$7[ebp]
	push	ecx
	lea	edx, DWORD PTR $T5[ebp]
	push	edx
	mov	eax, DWORD PTR _this$[ebp]
	mov	ecx, DWORD PTR [eax+12]
	call	?getInputRegisters@SlaveFactory@@QAE?ATuValue@@USlaveInformation@@I@Z ; SlaveFactory::getInputRegisters
	mov	ecx, 16					; 00000010H
	shl	ecx, 0
	lea	edx, DWORD PTR _regs$8[ebp+ecx]
	mov	ecx, DWORD PTR [eax]
	mov	DWORD PTR [edx], ecx
	mov	ecx, DWORD PTR [eax+4]
	mov	DWORD PTR [edx+4], ecx
	mov	ecx, DWORD PTR [eax+8]
	mov	DWORD PTR [edx+8], ecx
	mov	eax, DWORD PTR [eax+12]
	mov	DWORD PTR [edx+12], eax
; Line 59
	mov	eax, DWORD PTR _sv$7[ebp+4]
	add	eax, 1
	mov	DWORD PTR _sv$7[ebp+4], eax
; Line 60
	push	2
	mov	eax, DWORD PTR _sv$7[ebp+4]
	push	eax
	mov	ecx, DWORD PTR _sv$7[ebp]
	push	ecx
	lea	edx, DWORD PTR $T6[ebp]
	push	edx
	mov	eax, DWORD PTR _this$[ebp]
	mov	ecx, DWORD PTR [eax+12]
	call	?getInputRegisters@SlaveFactory@@QAE?ATuValue@@USlaveInformation@@I@Z ; SlaveFactory::getInputRegisters
	mov	ecx, 16					; 00000010H
	shl	ecx, 1
	lea	edx, DWORD PTR _regs$8[ebp+ecx]
	mov	ecx, DWORD PTR [eax]
	mov	DWORD PTR [edx], ecx
	mov	ecx, DWORD PTR [eax+4]
	mov	DWORD PTR [edx+4], ecx
	mov	ecx, DWORD PTR [eax+8]
	mov	DWORD PTR [edx+8], ecx
	mov	eax, DWORD PTR [eax+12]
	mov	DWORD PTR [edx+12], eax
; Line 62
	mov	eax, 16					; 00000010H
	imul	eax, 0
	cvtsi2sd xmm0, DWORD PTR _regs$8[ebp+eax]
	mulsd	xmm0, QWORD PTR __real@41f0000000000000
	mov	ecx, 16					; 00000010H
	shl	ecx, 0
	cvtsi2sd xmm1, DWORD PTR _regs$8[ebp+ecx]
	mulsd	xmm1, QWORD PTR __real@40f0000000000000
	addsd	xmm0, xmm1
	mov	edx, 16					; 00000010H
	shl	edx, 1
	cvtsi2sd xmm1, DWORD PTR _regs$8[ebp+edx]
	addsd	xmm0, xmm1
	cvtsd2ss xmm0, xmm0
	cvtss2sd xmm0, xmm0
	divsd	xmm0, QWORD PTR __real@416312d000000000
	cvtsd2ss xmm0, xmm0
	push	ecx
	movss	DWORD PTR [esp], xmm0
	mov	ecx, DWORD PTR _prop$[ebp]
	call	?setValueFloat@Property@@QAEXM@Z	; Property::setValueFloat
	jmp	SHORT $LN1@getVal
$LN3@getVal:
; Line 67
	mov	eax, DWORD PTR _prop$[ebp]
	cmp	DWORD PTR [eax+108], 109		; 0000006dH
	jne	SHORT $LN1@getVal
; Line 69
	mov	eax, DWORD PTR _this$[ebp]
	mov	ecx, DWORD PTR [eax+16]
	push	ecx
	mov	ecx, DWORD PTR _prop$[ebp]
	call	?setValueUnsignedLong@Property@@QAEXK@Z	; Property::setValueUnsignedLong
$LN1@getVal:
; Line 72
	mov	eax, DWORD PTR _prop$[ebp]
	mov	eax, DWORD PTR [eax+112]
; Line 73
	push	edx
	mov	ecx, ebp
	push	eax
	lea	edx, DWORD PTR $LN13@getVal
	call	@_RTC_CheckStackVars@8
	pop	eax
	pop	edx
	pop	edi
	pop	esi
	pop	ebx
	mov	ecx, DWORD PTR __$ArrayPad$[ebp]
	xor	ecx, ebp
	call	@__security_check_cookie@4
	add	esp, 496				; 000001f0H
	cmp	ebp, esp
	call	__RTC_CheckEsp
	mov	esp, ebp
	pop	ebp
	ret	4
	npad	3
$LN13@getVal:
	DD	4
	DD	$LN12@getVal
$LN12@getVal:
	DD	-68					; ffffffbcH
	DD	48					; 00000030H
	DD	$LN8@getVal
	DD	-84					; ffffffacH
	DD	8
	DD	$LN9@getVal
	DD	-140					; ffffff74H
	DD	48					; 00000030H
	DD	$LN10@getVal
	DD	-156					; ffffff64H
	DD	8
	DD	$LN11@getVal
$LN11@getVal:
	DB	115					; 00000073H
	DB	118					; 00000076H
	DB	0
$LN10@getVal:
	DB	114					; 00000072H
	DB	101					; 00000065H
	DB	103					; 00000067H
	DB	115					; 00000073H
	DB	0
$LN9@getVal:
	DB	115					; 00000073H
	DB	118					; 00000076H
	DB	0
$LN8@getVal:
	DB	114					; 00000072H
	DB	101					; 00000065H
	DB	103					; 00000067H
	DB	115					; 00000073H
	DB	0
?getVal@BskzhDevice@@UAEIPAVProperty@@@Z ENDP		; BskzhDevice::getVal
_TEXT	ENDS
; Function compile flags: /Odtp /RTCsu /ZI
;	COMDAT ??1BskzhDevice@@UAE@XZ
_TEXT	SEGMENT
_this$ = -8						; size = 4
??1BskzhDevice@@UAE@XZ PROC				; BskzhDevice::~BskzhDevice, COMDAT
; _this$ = ecx
; File d:\projects\asu\icpdas\tmminios\tmminios\deviceclasses.cpp
; Line 26
	push	ebp
	mov	ebp, esp
	sub	esp, 204				; 000000ccH
	push	ebx
	push	esi
	push	edi
	push	ecx
	lea	edi, DWORD PTR [ebp-204]
	mov	ecx, 51					; 00000033H
	mov	eax, -858993460				; ccccccccH
	rep stosd
	pop	ecx
	mov	DWORD PTR _this$[ebp], ecx
	mov	eax, DWORD PTR _this$[ebp]
	mov	DWORD PTR [eax], OFFSET ??_7BskzhDevice@@6B@
; Line 27
	mov	ecx, DWORD PTR _this$[ebp]
	call	??1AbstractDevice@@UAE@XZ		; AbstractDevice::~AbstractDevice
	pop	edi
	pop	esi
	pop	ebx
	add	esp, 204				; 000000ccH
	cmp	ebp, esp
	call	__RTC_CheckEsp
	mov	esp, ebp
	pop	ebp
	ret	0
??1BskzhDevice@@UAE@XZ ENDP				; BskzhDevice::~BskzhDevice
_TEXT	ENDS
; Function compile flags: /Odtp /RTCsu /ZI
;	COMDAT ??0BskzhDevice@@QAE@GG@Z
_TEXT	SEGMENT
tv183 = -292						; size = 4
tv165 = -292						; size = 4
tv147 = -292						; size = 4
$T2 = -284						; size = 4
$T3 = -272						; size = 4
$T4 = -260						; size = 4
$T5 = -248						; size = 4
$T6 = -236						; size = 4
$T7 = -224						; size = 4
_this$ = -20						; size = 4
__$EHRec$ = -12						; size = 12
_addrr$ = 8						; size = 2
_evMask$ = 12						; size = 2
??0BskzhDevice@@QAE@GG@Z PROC				; BskzhDevice::BskzhDevice, COMDAT
; _this$ = ecx
; File d:\projects\asu\icpdas\tmminios\tmminios\deviceclasses.cpp
; Line 17
	push	ebp
	mov	ebp, esp
	push	-1
	push	__ehhandler$??0BskzhDevice@@QAE@GG@Z
	mov	eax, DWORD PTR fs:0
	push	eax
	sub	esp, 280				; 00000118H
	push	ebx
	push	esi
	push	edi
	push	ecx
	lea	edi, DWORD PTR [ebp-292]
	mov	ecx, 70					; 00000046H
	mov	eax, -858993460				; ccccccccH
	rep stosd
	pop	ecx
	mov	eax, DWORD PTR ___security_cookie
	xor	eax, ebp
	push	eax
	lea	eax, DWORD PTR __$EHRec$[ebp]
	mov	DWORD PTR fs:0, eax
	mov	DWORD PTR _this$[ebp], ecx
	movzx	eax, WORD PTR _evMask$[ebp]
	push	eax
	movzx	ecx, WORD PTR _addrr$[ebp]
	push	ecx
	push	3
	mov	ecx, DWORD PTR _this$[ebp]
	call	??0AbstractDevice@@IAE@FGG@Z		; AbstractDevice::AbstractDevice
	mov	DWORD PTR __$EHRec$[ebp+8], 0
	mov	eax, DWORD PTR _this$[ebp]
	mov	DWORD PTR [eax], OFFSET ??_7BskzhDevice@@6B@
; Line 18
	movzx	eax, WORD PTR _addrr$[ebp]
	mov	esi, esp
	push	eax
	push	OFFSET ??_C@_05GGIAPBHH@BSKZH?$AA@
	push	OFFSET ??_C@_09KPBEDMKF@?$CFs?5ch?3?5?$CFd?$AA@
	mov	ecx, DWORD PTR _this$[ebp]
	add	ecx, 24					; 00000018H
	push	ecx
	call	DWORD PTR __imp__sprintf
	add	esp, 16					; 00000010H
	cmp	esi, esp
	call	__RTC_CheckEsp
; Line 19
	mov	eax, DWORD PTR _this$[ebp]
	mov	DWORD PTR [eax+140], 1
; Line 20
	push	168					; 000000a8H
	call	??2@YAPAXI@Z				; operator new
	add	esp, 4
	mov	DWORD PTR $T3[ebp], eax
	mov	BYTE PTR __$EHRec$[ebp+8], 1
	cmp	DWORD PTR $T3[ebp], 0
	je	SHORT $LN3@BskzhDevic
	mov	ecx, DWORD PTR $T3[ebp]
	call	??0BskzhMass1Property@@QAE@XZ		; BskzhMass1Property::BskzhMass1Property
	mov	DWORD PTR tv147[ebp], eax
	jmp	SHORT $LN4@BskzhDevic
$LN3@BskzhDevic:
	mov	DWORD PTR tv147[ebp], 0
$LN4@BskzhDevic:
	mov	eax, DWORD PTR tv147[ebp]
	mov	DWORD PTR $T2[ebp], eax
	mov	BYTE PTR __$EHRec$[ebp+8], 0
	mov	ecx, 4
	imul	ecx, 0
	mov	edx, DWORD PTR _this$[ebp]
	mov	eax, DWORD PTR [edx+132]
	mov	edx, DWORD PTR $T2[ebp]
	mov	DWORD PTR [ecx+eax], edx
; Line 21
	push	168					; 000000a8H
	call	??2@YAPAXI@Z				; operator new
	add	esp, 4
	mov	DWORD PTR $T5[ebp], eax
	mov	BYTE PTR __$EHRec$[ebp+8], 2
	cmp	DWORD PTR $T5[ebp], 0
	je	SHORT $LN5@BskzhDevic
	mov	ecx, DWORD PTR $T5[ebp]
	call	??0BskzhMass2Property@@QAE@XZ		; BskzhMass2Property::BskzhMass2Property
	mov	DWORD PTR tv165[ebp], eax
	jmp	SHORT $LN6@BskzhDevic
$LN5@BskzhDevic:
	mov	DWORD PTR tv165[ebp], 0
$LN6@BskzhDevic:
	mov	eax, DWORD PTR tv165[ebp]
	mov	DWORD PTR $T4[ebp], eax
	mov	BYTE PTR __$EHRec$[ebp+8], 0
	mov	ecx, 4
	shl	ecx, 0
	mov	edx, DWORD PTR _this$[ebp]
	mov	eax, DWORD PTR [edx+132]
	mov	edx, DWORD PTR $T4[ebp]
	mov	DWORD PTR [ecx+eax], edx
; Line 22
	push	168					; 000000a8H
	call	??2@YAPAXI@Z				; operator new
	add	esp, 4
	mov	DWORD PTR $T7[ebp], eax
	mov	BYTE PTR __$EHRec$[ebp+8], 3
	cmp	DWORD PTR $T7[ebp], 0
	je	SHORT $LN7@BskzhDevic
	mov	ecx, DWORD PTR $T7[ebp]
	call	??0ErrorProperty@@QAE@XZ		; ErrorProperty::ErrorProperty
	mov	DWORD PTR tv183[ebp], eax
	jmp	SHORT $LN8@BskzhDevic
$LN7@BskzhDevic:
	mov	DWORD PTR tv183[ebp], 0
$LN8@BskzhDevic:
	mov	eax, DWORD PTR tv183[ebp]
	mov	DWORD PTR $T6[ebp], eax
	mov	BYTE PTR __$EHRec$[ebp+8], 0
	mov	ecx, 4
	shl	ecx, 1
	mov	edx, DWORD PTR _this$[ebp]
	mov	eax, DWORD PTR [edx+132]
	mov	edx, DWORD PTR $T6[ebp]
	mov	DWORD PTR [ecx+eax], edx
; Line 23
	mov	DWORD PTR __$EHRec$[ebp+8], -1
	mov	eax, DWORD PTR _this$[ebp]
	mov	ecx, DWORD PTR __$EHRec$[ebp]
	mov	DWORD PTR fs:0, ecx
	pop	ecx
	pop	edi
	pop	esi
	pop	ebx
	add	esp, 292				; 00000124H
	cmp	ebp, esp
	call	__RTC_CheckEsp
	mov	esp, ebp
	pop	ebp
	ret	8
_TEXT	ENDS
;	COMDAT text$x
text$x	SEGMENT
__unwindfunclet$??0BskzhDevice@@QAE@GG@Z$0:
	mov	ecx, DWORD PTR _this$[ebp]
	jmp	??1AbstractDevice@@UAE@XZ		; AbstractDevice::~AbstractDevice
__unwindfunclet$??0BskzhDevice@@QAE@GG@Z$1:
	mov	eax, DWORD PTR $T3[ebp]
	push	eax
	call	??3@YAXPAX@Z				; operator delete
	pop	ecx
	ret	0
__unwindfunclet$??0BskzhDevice@@QAE@GG@Z$2:
	mov	eax, DWORD PTR $T5[ebp]
	push	eax
	call	??3@YAXPAX@Z				; operator delete
	pop	ecx
	ret	0
__unwindfunclet$??0BskzhDevice@@QAE@GG@Z$3:
	mov	eax, DWORD PTR $T7[ebp]
	push	eax
	call	??3@YAXPAX@Z				; operator delete
	pop	ecx
	ret	0
__ehhandler$??0BskzhDevice@@QAE@GG@Z:
	mov	edx, DWORD PTR [esp+8]
	lea	eax, DWORD PTR [edx+12]
	mov	ecx, DWORD PTR [edx-296]
	xor	ecx, eax
	call	@__security_check_cookie@4
	mov	eax, OFFSET __ehfuncinfo$??0BskzhDevice@@QAE@GG@Z
	jmp	___CxxFrameHandler3
text$x	ENDS
??0BskzhDevice@@QAE@GG@Z ENDP				; BskzhDevice::BskzhDevice
; Function compile flags: /Odtp /RTCsu /ZI
;	COMDAT ??_FuValue@@QAEXXZ
_TEXT	SEGMENT
_this$ = -8						; size = 4
??_FuValue@@QAEXXZ PROC					; uValue::`default constructor closure', COMDAT
; _this$ = ecx
	push	ebp
	mov	ebp, esp
	sub	esp, 204				; 000000ccH
	push	ebx
	push	esi
	push	edi
	push	ecx
	lea	edi, DWORD PTR [ebp-204]
	mov	ecx, 51					; 00000033H
	mov	eax, -858993460				; ccccccccH
	rep stosd
	pop	ecx
	mov	DWORD PTR _this$[ebp], ecx
	push	0
	mov	ecx, DWORD PTR _this$[ebp]
	call	??0uValue@@QAE@K@Z			; uValue::uValue
	pop	edi
	pop	esi
	pop	ebx
	add	esp, 204				; 000000ccH
	cmp	ebp, esp
	call	__RTC_CheckEsp
	mov	esp, ebp
	pop	ebp
	ret	0
??_FuValue@@QAEXXZ ENDP					; uValue::`default constructor closure'
_TEXT	ENDS
; Function compile flags: /Odtp /RTCsu /ZI
;	COMDAT ??0uValue@@QAE@K@Z
_TEXT	SEGMENT
_this$ = -8						; size = 4
_ulval_param$ = 8					; size = 4
??0uValue@@QAE@K@Z PROC					; uValue::uValue, COMDAT
; _this$ = ecx
; File d:\projects\asu\icpdas\tmminios\tmminios\headersinclude.h
; Line 121
	push	ebp
	mov	ebp, esp
	sub	esp, 204				; 000000ccH
	push	ebx
	push	esi
	push	edi
	push	ecx
	lea	edi, DWORD PTR [ebp-204]
	mov	ecx, 51					; 00000033H
	mov	eax, -858993460				; ccccccccH
	rep stosd
	pop	ecx
	mov	DWORD PTR _this$[ebp], ecx
; Line 123
	push	16					; 00000010H
	push	0
	mov	eax, DWORD PTR _this$[ebp]
	push	eax
	call	_memset
	add	esp, 12					; 0000000cH
; Line 124
	mov	eax, DWORD PTR _this$[ebp]
	mov	ecx, DWORD PTR _ulval_param$[ebp]
	mov	DWORD PTR [eax], ecx
; Line 125
	mov	eax, DWORD PTR _this$[ebp]
	pop	edi
	pop	esi
	pop	ebx
	add	esp, 204				; 000000ccH
	cmp	ebp, esp
	call	__RTC_CheckEsp
	mov	esp, ebp
	pop	ebp
	ret	4
??0uValue@@QAE@K@Z ENDP					; uValue::uValue
_TEXT	ENDS
; Function compile flags: /Odtp /RTCsu /ZI
;	COMDAT ??0SlaveInformation@@QAE@W4regType@@J@Z
_TEXT	SEGMENT
_this$ = -8						; size = 4
_registType$ = 8					; size = 4
_registNumber$ = 12					; size = 4
??0SlaveInformation@@QAE@W4regType@@J@Z PROC		; SlaveInformation::SlaveInformation, COMDAT
; _this$ = ecx
; File d:\projects\asu\icpdas\tmminios\tmminios\headersinclude.h
; Line 89
	push	ebp
	mov	ebp, esp
	sub	esp, 204				; 000000ccH
	push	ebx
	push	esi
	push	edi
	push	ecx
	lea	edi, DWORD PTR [ebp-204]
	mov	ecx, 51					; 00000033H
	mov	eax, -858993460				; ccccccccH
	rep stosd
	pop	ecx
	mov	DWORD PTR _this$[ebp], ecx
; Line 91
	push	8
	push	0
	mov	eax, DWORD PTR _this$[ebp]
	push	eax
	call	_memset
	add	esp, 12					; 0000000cH
; Line 92
	mov	eax, DWORD PTR _this$[ebp]
	mov	ecx, DWORD PTR _registType$[ebp]
	mov	DWORD PTR [eax], ecx
; Line 93
	mov	eax, DWORD PTR _this$[ebp]
	mov	ecx, DWORD PTR _registNumber$[ebp]
	mov	DWORD PTR [eax+4], ecx
; Line 94
	mov	eax, DWORD PTR _this$[ebp]
	pop	edi
	pop	esi
	pop	ebx
	add	esp, 204				; 000000ccH
	cmp	ebp, esp
	call	__RTC_CheckEsp
	mov	esp, ebp
	pop	ebp
	ret	8
??0SlaveInformation@@QAE@W4regType@@J@Z ENDP		; SlaveInformation::SlaveInformation
_TEXT	ENDS
; Function compile flags: /Odtp /RTCsu /ZI
;	COMDAT ??_G_System_error_category@std@@UAEPAXI@Z
_TEXT	SEGMENT
_this$ = -8						; size = 4
___flags$ = 8						; size = 4
??_G_System_error_category@std@@UAEPAXI@Z PROC		; std::_System_error_category::`scalar deleting destructor', COMDAT
; _this$ = ecx
	push	ebp
	mov	ebp, esp
	sub	esp, 204				; 000000ccH
	push	ebx
	push	esi
	push	edi
	push	ecx
	lea	edi, DWORD PTR [ebp-204]
	mov	ecx, 51					; 00000033H
	mov	eax, -858993460				; ccccccccH
	rep stosd
	pop	ecx
	mov	DWORD PTR _this$[ebp], ecx
	mov	ecx, DWORD PTR _this$[ebp]
	call	??1_System_error_category@std@@UAE@XZ
	mov	eax, DWORD PTR ___flags$[ebp]
	and	eax, 1
	je	SHORT $LN1@scalar
	mov	eax, DWORD PTR _this$[ebp]
	push	eax
	call	??3@YAXPAX@Z				; operator delete
	add	esp, 4
$LN1@scalar:
	mov	eax, DWORD PTR _this$[ebp]
	pop	edi
	pop	esi
	pop	ebx
	add	esp, 204				; 000000ccH
	cmp	ebp, esp
	call	__RTC_CheckEsp
	mov	esp, ebp
	pop	ebp
	ret	4
??_G_System_error_category@std@@UAEPAXI@Z ENDP		; std::_System_error_category::`scalar deleting destructor'
_TEXT	ENDS
; Function compile flags: /Odtp /RTCsu /ZI
;	COMDAT ??1_System_error_category@std@@UAE@XZ
_TEXT	SEGMENT
_this$ = -8						; size = 4
??1_System_error_category@std@@UAE@XZ PROC		; std::_System_error_category::~_System_error_category, COMDAT
; _this$ = ecx
	push	ebp
	mov	ebp, esp
	sub	esp, 204				; 000000ccH
	push	ebx
	push	esi
	push	edi
	push	ecx
	lea	edi, DWORD PTR [ebp-204]
	mov	ecx, 51					; 00000033H
	mov	eax, -858993460				; ccccccccH
	rep stosd
	pop	ecx
	mov	DWORD PTR _this$[ebp], ecx
	mov	ecx, DWORD PTR _this$[ebp]
	call	??1_Generic_error_category@std@@UAE@XZ
	pop	edi
	pop	esi
	pop	ebx
	add	esp, 204				; 000000ccH
	cmp	ebp, esp
	call	__RTC_CheckEsp
	mov	esp, ebp
	pop	ebp
	ret	0
??1_System_error_category@std@@UAE@XZ ENDP		; std::_System_error_category::~_System_error_category
_TEXT	ENDS
; Function compile flags: /Odtp /RTCsu /ZI
;	COMDAT ?default_error_condition@_System_error_category@std@@UBE?AVerror_condition@2@H@Z
_TEXT	SEGMENT
_this$ = -8						; size = 4
___$ReturnUdt$ = 8					; size = 4
__Errval$ = 12						; size = 4
?default_error_condition@_System_error_category@std@@UBE?AVerror_condition@2@H@Z PROC ; std::_System_error_category::default_error_condition, COMDAT
; _this$ = ecx
; File c:\program files (x86)\microsoft visual studio 11.0\vc\include\system_error
; Line 641
	push	ebp
	mov	ebp, esp
	sub	esp, 204				; 000000ccH
	push	ebx
	push	esi
	push	edi
	push	ecx
	lea	edi, DWORD PTR [ebp-204]
	mov	ecx, 51					; 00000033H
	mov	eax, -858993460				; ccccccccH
	rep stosd
	pop	ecx
	mov	DWORD PTR _this$[ebp], ecx
; Line 642
	mov	esi, esp
	mov	eax, DWORD PTR __Errval$[ebp]
	push	eax
	call	DWORD PTR __imp_?_Syserror_map@std@@YAPBDH@Z
	add	esp, 4
	cmp	esi, esp
	call	__RTC_CheckEsp
	test	eax, eax
	je	SHORT $LN2@default_er
; Line 643
	call	?generic_category@std@@YAABVerror_category@1@XZ ; std::generic_category
	push	eax
	mov	eax, DWORD PTR __Errval$[ebp]
	push	eax
	mov	ecx, DWORD PTR ___$ReturnUdt$[ebp]
	call	??0error_condition@std@@QAE@HABVerror_category@1@@Z ; std::error_condition::error_condition
	mov	eax, DWORD PTR ___$ReturnUdt$[ebp]
	jmp	SHORT $LN3@default_er
; Line 644
	jmp	SHORT $LN3@default_er
$LN2@default_er:
; Line 645
	call	?system_category@std@@YAABVerror_category@1@XZ ; std::system_category
	push	eax
	mov	eax, DWORD PTR __Errval$[ebp]
	push	eax
	mov	ecx, DWORD PTR ___$ReturnUdt$[ebp]
	call	??0error_condition@std@@QAE@HABVerror_category@1@@Z ; std::error_condition::error_condition
	mov	eax, DWORD PTR ___$ReturnUdt$[ebp]
$LN3@default_er:
; Line 646
	pop	edi
	pop	esi
	pop	ebx
	add	esp, 204				; 000000ccH
	cmp	ebp, esp
	call	__RTC_CheckEsp
	mov	esp, ebp
	pop	ebp
	ret	8
?default_error_condition@_System_error_category@std@@UBE?AVerror_condition@2@H@Z ENDP ; std::_System_error_category::default_error_condition
_TEXT	ENDS
; Function compile flags: /Odtp /RTCsu /ZI
;	COMDAT ?message@_System_error_category@std@@UBE?AV?$basic_string@DU?$char_traits@D@std@@V?$allocator@D@2@@2@H@Z
_TEXT	SEGMENT
tv69 = -232						; size = 4
$T1 = -224						; size = 4
__Name$ = -20						; size = 4
_this$ = -8						; size = 4
___$ReturnUdt$ = 8					; size = 4
__Errcode$ = 12						; size = 4
?message@_System_error_category@std@@UBE?AV?$basic_string@DU?$char_traits@D@std@@V?$allocator@D@2@@2@H@Z PROC ; std::_System_error_category::message, COMDAT
; _this$ = ecx
; File c:\program files (x86)\microsoft visual studio 11.0\vc\include\system_error
; Line 634
	push	ebp
	mov	ebp, esp
	sub	esp, 232				; 000000e8H
	push	ebx
	push	esi
	push	edi
	push	ecx
	lea	edi, DWORD PTR [ebp-232]
	mov	ecx, 58					; 0000003aH
	mov	eax, -858993460				; ccccccccH
	rep stosd
	pop	ecx
	mov	DWORD PTR _this$[ebp], ecx
	mov	DWORD PTR $T1[ebp], 0
; Line 635
	mov	esi, esp
	mov	eax, DWORD PTR __Errcode$[ebp]
	push	eax
	call	DWORD PTR __imp_?_Winerror_map@std@@YAPBDH@Z
	add	esp, 4
	cmp	esi, esp
	call	__RTC_CheckEsp
	mov	DWORD PTR __Name$[ebp], eax
; Line 636
	cmp	DWORD PTR __Name$[ebp], 0
	je	SHORT $LN3@message
	mov	eax, DWORD PTR __Name$[ebp]
	mov	DWORD PTR tv69[ebp], eax
	jmp	SHORT $LN4@message
$LN3@message:
	mov	DWORD PTR tv69[ebp], OFFSET ??_C@_0O@BFJCFAAK@unknown?5error?$AA@
$LN4@message:
	mov	ecx, DWORD PTR tv69[ebp]
	push	ecx
	mov	ecx, DWORD PTR ___$ReturnUdt$[ebp]
	call	??0?$basic_string@DU?$char_traits@D@std@@V?$allocator@D@2@@std@@QAE@PBD@Z ; std::basic_string<char,std::char_traits<char>,std::allocator<char> >::basic_string<char,std::char_traits<char>,std::allocator<char> >
	mov	edx, DWORD PTR $T1[ebp]
	or	edx, 1
	mov	DWORD PTR $T1[ebp], edx
	mov	eax, DWORD PTR ___$ReturnUdt$[ebp]
; Line 637
	pop	edi
	pop	esi
	pop	ebx
	add	esp, 232				; 000000e8H
	cmp	ebp, esp
	call	__RTC_CheckEsp
	mov	esp, ebp
	pop	ebp
	ret	8
?message@_System_error_category@std@@UBE?AV?$basic_string@DU?$char_traits@D@std@@V?$allocator@D@2@@2@H@Z ENDP ; std::_System_error_category::message
_TEXT	ENDS
; Function compile flags: /Odtp /RTCsu /ZI
;	COMDAT ?name@_System_error_category@std@@UBEPBDXZ
_TEXT	SEGMENT
_this$ = -8						; size = 4
?name@_System_error_category@std@@UBEPBDXZ PROC		; std::_System_error_category::name, COMDAT
; _this$ = ecx
; File c:\program files (x86)\microsoft visual studio 11.0\vc\include\system_error
; Line 629
	push	ebp
	mov	ebp, esp
	sub	esp, 204				; 000000ccH
	push	ebx
	push	esi
	push	edi
	push	ecx
	lea	edi, DWORD PTR [ebp-204]
	mov	ecx, 51					; 00000033H
	mov	eax, -858993460				; ccccccccH
	rep stosd
	pop	ecx
	mov	DWORD PTR _this$[ebp], ecx
; Line 630
	mov	eax, OFFSET ??_C@_06FHFOAHML@system?$AA@
; Line 631
	pop	edi
	pop	esi
	pop	ebx
	mov	esp, ebp
	pop	ebp
	ret	0
?name@_System_error_category@std@@UBEPBDXZ ENDP		; std::_System_error_category::name
_TEXT	ENDS
; Function compile flags: /Odtp /RTCsu /ZI
;	COMDAT ??0_System_error_category@std@@QAE@XZ
_TEXT	SEGMENT
_this$ = -8						; size = 4
??0_System_error_category@std@@QAE@XZ PROC		; std::_System_error_category::_System_error_category, COMDAT
; _this$ = ecx
; File c:\program files (x86)\microsoft visual studio 11.0\vc\include\system_error
; Line 624
	push	ebp
	mov	ebp, esp
	sub	esp, 204				; 000000ccH
	push	ebx
	push	esi
	push	edi
	push	ecx
	lea	edi, DWORD PTR [ebp-204]
	mov	ecx, 51					; 00000033H
	mov	eax, -858993460				; ccccccccH
	rep stosd
	pop	ecx
	mov	DWORD PTR _this$[ebp], ecx
	mov	ecx, DWORD PTR _this$[ebp]
	call	??0_Generic_error_category@std@@QAE@XZ	; std::_Generic_error_category::_Generic_error_category
	mov	eax, DWORD PTR _this$[ebp]
	mov	DWORD PTR [eax], OFFSET ??_7_System_error_category@std@@6B@
; Line 626
	mov	eax, DWORD PTR _this$[ebp]
	pop	edi
	pop	esi
	pop	ebx
	add	esp, 204				; 000000ccH
	cmp	ebp, esp
	call	__RTC_CheckEsp
	mov	esp, ebp
	pop	ebp
	ret	0
??0_System_error_category@std@@QAE@XZ ENDP		; std::_System_error_category::_System_error_category
_TEXT	ENDS
; Function compile flags: /Odtp /RTCsu /ZI
;	COMDAT ??_G_Iostream_error_category@std@@UAEPAXI@Z
_TEXT	SEGMENT
_this$ = -8						; size = 4
___flags$ = 8						; size = 4
??_G_Iostream_error_category@std@@UAEPAXI@Z PROC	; std::_Iostream_error_category::`scalar deleting destructor', COMDAT
; _this$ = ecx
	push	ebp
	mov	ebp, esp
	sub	esp, 204				; 000000ccH
	push	ebx
	push	esi
	push	edi
	push	ecx
	lea	edi, DWORD PTR [ebp-204]
	mov	ecx, 51					; 00000033H
	mov	eax, -858993460				; ccccccccH
	rep stosd
	pop	ecx
	mov	DWORD PTR _this$[ebp], ecx
	mov	ecx, DWORD PTR _this$[ebp]
	call	??1_Iostream_error_category@std@@UAE@XZ
	mov	eax, DWORD PTR ___flags$[ebp]
	and	eax, 1
	je	SHORT $LN1@scalar
	mov	eax, DWORD PTR _this$[ebp]
	push	eax
	call	??3@YAXPAX@Z				; operator delete
	add	esp, 4
$LN1@scalar:
	mov	eax, DWORD PTR _this$[ebp]
	pop	edi
	pop	esi
	pop	ebx
	add	esp, 204				; 000000ccH
	cmp	ebp, esp
	call	__RTC_CheckEsp
	mov	esp, ebp
	pop	ebp
	ret	4
??_G_Iostream_error_category@std@@UAEPAXI@Z ENDP	; std::_Iostream_error_category::`scalar deleting destructor'
_TEXT	ENDS
; Function compile flags: /Odtp /RTCsu /ZI
;	COMDAT ??1_Iostream_error_category@std@@UAE@XZ
_TEXT	SEGMENT
_this$ = -8						; size = 4
??1_Iostream_error_category@std@@UAE@XZ PROC		; std::_Iostream_error_category::~_Iostream_error_category, COMDAT
; _this$ = ecx
	push	ebp
	mov	ebp, esp
	sub	esp, 204				; 000000ccH
	push	ebx
	push	esi
	push	edi
	push	ecx
	lea	edi, DWORD PTR [ebp-204]
	mov	ecx, 51					; 00000033H
	mov	eax, -858993460				; ccccccccH
	rep stosd
	pop	ecx
	mov	DWORD PTR _this$[ebp], ecx
	mov	ecx, DWORD PTR _this$[ebp]
	call	??1_Generic_error_category@std@@UAE@XZ
	pop	edi
	pop	esi
	pop	ebx
	add	esp, 204				; 000000ccH
	cmp	ebp, esp
	call	__RTC_CheckEsp
	mov	esp, ebp
	pop	ebp
	ret	0
??1_Iostream_error_category@std@@UAE@XZ ENDP		; std::_Iostream_error_category::~_Iostream_error_category
_TEXT	ENDS
; Function compile flags: /Odtp /RTCsu /ZI
;	COMDAT ?message@_Iostream_error_category@std@@UBE?AV?$basic_string@DU?$char_traits@D@std@@V?$allocator@D@2@@2@H@Z
_TEXT	SEGMENT
$T1 = -212						; size = 4
_this$ = -8						; size = 4
___$ReturnUdt$ = 8					; size = 4
__Errcode$ = 12						; size = 4
?message@_Iostream_error_category@std@@UBE?AV?$basic_string@DU?$char_traits@D@std@@V?$allocator@D@2@@2@H@Z PROC ; std::_Iostream_error_category::message, COMDAT
; _this$ = ecx
; File c:\program files (x86)\microsoft visual studio 11.0\vc\include\system_error
; Line 611
	push	ebp
	mov	ebp, esp
	sub	esp, 216				; 000000d8H
	push	ebx
	push	esi
	push	edi
	push	ecx
	lea	edi, DWORD PTR [ebp-216]
	mov	ecx, 54					; 00000036H
	mov	eax, -858993460				; ccccccccH
	rep stosd
	pop	ecx
	mov	DWORD PTR _this$[ebp], ecx
	mov	DWORD PTR $T1[ebp], 0
; Line 612
	cmp	DWORD PTR __Errcode$[ebp], 1
	jne	SHORT $LN2@message
; Line 613
	push	OFFSET ??_C@_0BG@PADBLCHM@iostream?5stream?5error?$AA@
	mov	ecx, DWORD PTR ___$ReturnUdt$[ebp]
	call	??0?$basic_string@DU?$char_traits@D@std@@V?$allocator@D@2@@std@@QAE@PBD@Z ; std::basic_string<char,std::char_traits<char>,std::allocator<char> >::basic_string<char,std::char_traits<char>,std::allocator<char> >
	mov	eax, DWORD PTR $T1[ebp]
	or	eax, 1
	mov	DWORD PTR $T1[ebp], eax
	mov	eax, DWORD PTR ___$ReturnUdt$[ebp]
	jmp	SHORT $LN3@message
; Line 614
	jmp	SHORT $LN3@message
$LN2@message:
; Line 615
	mov	eax, DWORD PTR __Errcode$[ebp]
	push	eax
	mov	ecx, DWORD PTR ___$ReturnUdt$[ebp]
	push	ecx
	mov	ecx, DWORD PTR _this$[ebp]
	call	?message@_Generic_error_category@std@@UBE?AV?$basic_string@DU?$char_traits@D@std@@V?$allocator@D@2@@2@H@Z ; std::_Generic_error_category::message
	mov	edx, DWORD PTR $T1[ebp]
	or	edx, 1
	mov	DWORD PTR $T1[ebp], edx
	mov	eax, DWORD PTR ___$ReturnUdt$[ebp]
$LN3@message:
; Line 616
	pop	edi
	pop	esi
	pop	ebx
	add	esp, 216				; 000000d8H
	cmp	ebp, esp
	call	__RTC_CheckEsp
	mov	esp, ebp
	pop	ebp
	ret	8
?message@_Iostream_error_category@std@@UBE?AV?$basic_string@DU?$char_traits@D@std@@V?$allocator@D@2@@2@H@Z ENDP ; std::_Iostream_error_category::message
_TEXT	ENDS
; Function compile flags: /Odtp /RTCsu /ZI
;	COMDAT ?name@_Iostream_error_category@std@@UBEPBDXZ
_TEXT	SEGMENT
_this$ = -8						; size = 4
?name@_Iostream_error_category@std@@UBEPBDXZ PROC	; std::_Iostream_error_category::name, COMDAT
; _this$ = ecx
; File c:\program files (x86)\microsoft visual studio 11.0\vc\include\system_error
; Line 606
	push	ebp
	mov	ebp, esp
	sub	esp, 204				; 000000ccH
	push	ebx
	push	esi
	push	edi
	push	ecx
	lea	edi, DWORD PTR [ebp-204]
	mov	ecx, 51					; 00000033H
	mov	eax, -858993460				; ccccccccH
	rep stosd
	pop	ecx
	mov	DWORD PTR _this$[ebp], ecx
; Line 607
	mov	eax, OFFSET ??_C@_08LLGCOLLL@iostream?$AA@
; Line 608
	pop	edi
	pop	esi
	pop	ebx
	mov	esp, ebp
	pop	ebp
	ret	0
?name@_Iostream_error_category@std@@UBEPBDXZ ENDP	; std::_Iostream_error_category::name
_TEXT	ENDS
; Function compile flags: /Odtp /RTCsu /ZI
;	COMDAT ??0_Iostream_error_category@std@@QAE@XZ
_TEXT	SEGMENT
_this$ = -8						; size = 4
??0_Iostream_error_category@std@@QAE@XZ PROC		; std::_Iostream_error_category::_Iostream_error_category, COMDAT
; _this$ = ecx
; File c:\program files (x86)\microsoft visual studio 11.0\vc\include\system_error
; Line 601
	push	ebp
	mov	ebp, esp
	sub	esp, 204				; 000000ccH
	push	ebx
	push	esi
	push	edi
	push	ecx
	lea	edi, DWORD PTR [ebp-204]
	mov	ecx, 51					; 00000033H
	mov	eax, -858993460				; ccccccccH
	rep stosd
	pop	ecx
	mov	DWORD PTR _this$[ebp], ecx
	mov	ecx, DWORD PTR _this$[ebp]
	call	??0_Generic_error_category@std@@QAE@XZ	; std::_Generic_error_category::_Generic_error_category
	mov	eax, DWORD PTR _this$[ebp]
	mov	DWORD PTR [eax], OFFSET ??_7_Iostream_error_category@std@@6B@
; Line 603
	mov	eax, DWORD PTR _this$[ebp]
	pop	edi
	pop	esi
	pop	ebx
	add	esp, 204				; 000000ccH
	cmp	ebp, esp
	call	__RTC_CheckEsp
	mov	esp, ebp
	pop	ebp
	ret	0
??0_Iostream_error_category@std@@QAE@XZ ENDP		; std::_Iostream_error_category::_Iostream_error_category
_TEXT	ENDS
; Function compile flags: /Odtp /RTCsu /ZI
;	COMDAT ??_G_Generic_error_category@std@@UAEPAXI@Z
_TEXT	SEGMENT
_this$ = -8						; size = 4
___flags$ = 8						; size = 4
??_G_Generic_error_category@std@@UAEPAXI@Z PROC		; std::_Generic_error_category::`scalar deleting destructor', COMDAT
; _this$ = ecx
	push	ebp
	mov	ebp, esp
	sub	esp, 204				; 000000ccH
	push	ebx
	push	esi
	push	edi
	push	ecx
	lea	edi, DWORD PTR [ebp-204]
	mov	ecx, 51					; 00000033H
	mov	eax, -858993460				; ccccccccH
	rep stosd
	pop	ecx
	mov	DWORD PTR _this$[ebp], ecx
	mov	ecx, DWORD PTR _this$[ebp]
	call	??1_Generic_error_category@std@@UAE@XZ
	mov	eax, DWORD PTR ___flags$[ebp]
	and	eax, 1
	je	SHORT $LN1@scalar
	mov	eax, DWORD PTR _this$[ebp]
	push	eax
	call	??3@YAXPAX@Z				; operator delete
	add	esp, 4
$LN1@scalar:
	mov	eax, DWORD PTR _this$[ebp]
	pop	edi
	pop	esi
	pop	ebx
	add	esp, 204				; 000000ccH
	cmp	ebp, esp
	call	__RTC_CheckEsp
	mov	esp, ebp
	pop	ebp
	ret	4
??_G_Generic_error_category@std@@UAEPAXI@Z ENDP		; std::_Generic_error_category::`scalar deleting destructor'
_TEXT	ENDS
; Function compile flags: /Odtp /RTCsu /ZI
;	COMDAT ??1_Generic_error_category@std@@UAE@XZ
_TEXT	SEGMENT
_this$ = -8						; size = 4
??1_Generic_error_category@std@@UAE@XZ PROC		; std::_Generic_error_category::~_Generic_error_category, COMDAT
; _this$ = ecx
	push	ebp
	mov	ebp, esp
	sub	esp, 204				; 000000ccH
	push	ebx
	push	esi
	push	edi
	push	ecx
	lea	edi, DWORD PTR [ebp-204]
	mov	ecx, 51					; 00000033H
	mov	eax, -858993460				; ccccccccH
	rep stosd
	pop	ecx
	mov	DWORD PTR _this$[ebp], ecx
	mov	ecx, DWORD PTR _this$[ebp]
	call	??1error_category@std@@UAE@XZ		; std::error_category::~error_category
	pop	edi
	pop	esi
	pop	ebx
	add	esp, 204				; 000000ccH
	cmp	ebp, esp
	call	__RTC_CheckEsp
	mov	esp, ebp
	pop	ebp
	ret	0
??1_Generic_error_category@std@@UAE@XZ ENDP		; std::_Generic_error_category::~_Generic_error_category
_TEXT	ENDS
; Function compile flags: /Odtp /RTCsu /ZI
;	COMDAT ?message@_Generic_error_category@std@@UBE?AV?$basic_string@DU?$char_traits@D@std@@V?$allocator@D@2@@2@H@Z
_TEXT	SEGMENT
tv69 = -232						; size = 4
$T1 = -224						; size = 4
__Name$ = -20						; size = 4
_this$ = -8						; size = 4
___$ReturnUdt$ = 8					; size = 4
__Errcode$ = 12						; size = 4
?message@_Generic_error_category@std@@UBE?AV?$basic_string@DU?$char_traits@D@std@@V?$allocator@D@2@@2@H@Z PROC ; std::_Generic_error_category::message, COMDAT
; _this$ = ecx
; File c:\program files (x86)\microsoft visual studio 11.0\vc\include\system_error
; Line 590
	push	ebp
	mov	ebp, esp
	sub	esp, 232				; 000000e8H
	push	ebx
	push	esi
	push	edi
	push	ecx
	lea	edi, DWORD PTR [ebp-232]
	mov	ecx, 58					; 0000003aH
	mov	eax, -858993460				; ccccccccH
	rep stosd
	pop	ecx
	mov	DWORD PTR _this$[ebp], ecx
	mov	DWORD PTR $T1[ebp], 0
; Line 591
	mov	esi, esp
	mov	eax, DWORD PTR __Errcode$[ebp]
	push	eax
	call	DWORD PTR __imp_?_Syserror_map@std@@YAPBDH@Z
	add	esp, 4
	cmp	esi, esp
	call	__RTC_CheckEsp
	mov	DWORD PTR __Name$[ebp], eax
; Line 592
	cmp	DWORD PTR __Name$[ebp], 0
	je	SHORT $LN3@message
	mov	eax, DWORD PTR __Name$[ebp]
	mov	DWORD PTR tv69[ebp], eax
	jmp	SHORT $LN4@message
$LN3@message:
	mov	DWORD PTR tv69[ebp], OFFSET ??_C@_0O@BFJCFAAK@unknown?5error?$AA@
$LN4@message:
	mov	ecx, DWORD PTR tv69[ebp]
	push	ecx
	mov	ecx, DWORD PTR ___$ReturnUdt$[ebp]
	call	??0?$basic_string@DU?$char_traits@D@std@@V?$allocator@D@2@@std@@QAE@PBD@Z ; std::basic_string<char,std::char_traits<char>,std::allocator<char> >::basic_string<char,std::char_traits<char>,std::allocator<char> >
	mov	edx, DWORD PTR $T1[ebp]
	or	edx, 1
	mov	DWORD PTR $T1[ebp], edx
	mov	eax, DWORD PTR ___$ReturnUdt$[ebp]
; Line 593
	pop	edi
	pop	esi
	pop	ebx
	add	esp, 232				; 000000e8H
	cmp	ebp, esp
	call	__RTC_CheckEsp
	mov	esp, ebp
	pop	ebp
	ret	8
?message@_Generic_error_category@std@@UBE?AV?$basic_string@DU?$char_traits@D@std@@V?$allocator@D@2@@2@H@Z ENDP ; std::_Generic_error_category::message
_TEXT	ENDS
; Function compile flags: /Odtp /RTCsu /ZI
;	COMDAT ?name@_Generic_error_category@std@@UBEPBDXZ
_TEXT	SEGMENT
_this$ = -8						; size = 4
?name@_Generic_error_category@std@@UBEPBDXZ PROC	; std::_Generic_error_category::name, COMDAT
; _this$ = ecx
; File c:\program files (x86)\microsoft visual studio 11.0\vc\include\system_error
; Line 585
	push	ebp
	mov	ebp, esp
	sub	esp, 204				; 000000ccH
	push	ebx
	push	esi
	push	edi
	push	ecx
	lea	edi, DWORD PTR [ebp-204]
	mov	ecx, 51					; 00000033H
	mov	eax, -858993460				; ccccccccH
	rep stosd
	pop	ecx
	mov	DWORD PTR _this$[ebp], ecx
; Line 586
	mov	eax, OFFSET ??_C@_07DCLBNMLN@generic?$AA@
; Line 587
	pop	edi
	pop	esi
	pop	ebx
	mov	esp, ebp
	pop	ebp
	ret	0
?name@_Generic_error_category@std@@UBEPBDXZ ENDP	; std::_Generic_error_category::name
_TEXT	ENDS
; Function compile flags: /Odtp /RTCsu /ZI
;	COMDAT ??0_Generic_error_category@std@@QAE@XZ
_TEXT	SEGMENT
_this$ = -8						; size = 4
??0_Generic_error_category@std@@QAE@XZ PROC		; std::_Generic_error_category::_Generic_error_category, COMDAT
; _this$ = ecx
; File c:\program files (x86)\microsoft visual studio 11.0\vc\include\system_error
; Line 580
	push	ebp
	mov	ebp, esp
	sub	esp, 204				; 000000ccH
	push	ebx
	push	esi
	push	edi
	push	ecx
	lea	edi, DWORD PTR [ebp-204]
	mov	ecx, 51					; 00000033H
	mov	eax, -858993460				; ccccccccH
	rep stosd
	pop	ecx
	mov	DWORD PTR _this$[ebp], ecx
	mov	ecx, DWORD PTR _this$[ebp]
	call	??0error_category@std@@QAE@XZ		; std::error_category::error_category
	mov	eax, DWORD PTR _this$[ebp]
	mov	DWORD PTR [eax], OFFSET ??_7_Generic_error_category@std@@6B@
; Line 582
	mov	eax, DWORD PTR _this$[ebp]
	pop	edi
	pop	esi
	pop	ebx
	add	esp, 204				; 000000ccH
	cmp	ebp, esp
	call	__RTC_CheckEsp
	mov	esp, ebp
	pop	ebp
	ret	0
??0_Generic_error_category@std@@QAE@XZ ENDP		; std::_Generic_error_category::_Generic_error_category
_TEXT	ENDS
; Function compile flags: /Odtp /RTCsu /ZI
;	COMDAT ??8error_condition@std@@QBE_NABV01@@Z
_TEXT	SEGMENT
tv78 = -208						; size = 4
_this$ = -8						; size = 4
__Right$ = 8						; size = 4
??8error_condition@std@@QBE_NABV01@@Z PROC		; std::error_condition::operator==, COMDAT
; _this$ = ecx
; File c:\program files (x86)\microsoft visual studio 11.0\vc\include\system_error
; Line 376
	push	ebp
	mov	ebp, esp
	sub	esp, 208				; 000000d0H
	push	ebx
	push	esi
	push	edi
	push	ecx
	lea	edi, DWORD PTR [ebp-208]
	mov	ecx, 52					; 00000034H
	mov	eax, -858993460				; ccccccccH
	rep stosd
	pop	ecx
	mov	DWORD PTR _this$[ebp], ecx
; Line 378
	mov	ecx, DWORD PTR __Right$[ebp]
	call	?category@error_condition@std@@QBEABVerror_category@2@XZ ; std::error_condition::category
	push	eax
	mov	ecx, DWORD PTR _this$[ebp]
	call	?category@error_condition@std@@QBEABVerror_category@2@XZ ; std::error_condition::category
	mov	ecx, eax
	call	??8error_category@std@@QBE_NABV01@@Z	; std::error_category::operator==
	movzx	eax, al
	test	eax, eax
	je	SHORT $LN3@operator
	mov	ecx, DWORD PTR _this$[ebp]
	call	?value@error_condition@std@@QBEHXZ	; std::error_condition::value
	mov	esi, eax
	mov	ecx, DWORD PTR __Right$[ebp]
	call	?value@error_condition@std@@QBEHXZ	; std::error_condition::value
	cmp	esi, eax
	jne	SHORT $LN3@operator
	mov	DWORD PTR tv78[ebp], 1
	jmp	SHORT $LN4@operator
$LN3@operator:
	mov	DWORD PTR tv78[ebp], 0
$LN4@operator:
	mov	al, BYTE PTR tv78[ebp]
; Line 379
	pop	edi
	pop	esi
	pop	ebx
	add	esp, 208				; 000000d0H
	cmp	ebp, esp
	call	__RTC_CheckEsp
	mov	esp, ebp
	pop	ebp
	ret	4
??8error_condition@std@@QBE_NABV01@@Z ENDP		; std::error_condition::operator==
_TEXT	ENDS
; Function compile flags: /Odtp /RTCsu /ZI
;	COMDAT ?category@error_condition@std@@QBEABVerror_category@2@XZ
_TEXT	SEGMENT
_this$ = -8						; size = 4
?category@error_condition@std@@QBEABVerror_category@2@XZ PROC ; std::error_condition::category, COMDAT
; _this$ = ecx
; File c:\program files (x86)\microsoft visual studio 11.0\vc\include\system_error
; Line 354
	push	ebp
	mov	ebp, esp
	sub	esp, 204				; 000000ccH
	push	ebx
	push	esi
	push	edi
	push	ecx
	lea	edi, DWORD PTR [ebp-204]
	mov	ecx, 51					; 00000033H
	mov	eax, -858993460				; ccccccccH
	rep stosd
	pop	ecx
	mov	DWORD PTR _this$[ebp], ecx
; Line 355
	mov	eax, DWORD PTR _this$[ebp]
	mov	eax, DWORD PTR [eax+4]
; Line 356
	pop	edi
	pop	esi
	pop	ebx
	mov	esp, ebp
	pop	ebp
	ret	0
?category@error_condition@std@@QBEABVerror_category@2@XZ ENDP ; std::error_condition::category
_TEXT	ENDS
; Function compile flags: /Odtp /RTCsu /ZI
;	COMDAT ?value@error_condition@std@@QBEHXZ
_TEXT	SEGMENT
_this$ = -8						; size = 4
?value@error_condition@std@@QBEHXZ PROC			; std::error_condition::value, COMDAT
; _this$ = ecx
; File c:\program files (x86)\microsoft visual studio 11.0\vc\include\system_error
; Line 349
	push	ebp
	mov	ebp, esp
	sub	esp, 204				; 000000ccH
	push	ebx
	push	esi
	push	edi
	push	ecx
	lea	edi, DWORD PTR [ebp-204]
	mov	ecx, 51					; 00000033H
	mov	eax, -858993460				; ccccccccH
	rep stosd
	pop	ecx
	mov	DWORD PTR _this$[ebp], ecx
; Line 350
	mov	eax, DWORD PTR _this$[ebp]
	mov	eax, DWORD PTR [eax]
; Line 351
	pop	edi
	pop	esi
	pop	ebx
	mov	esp, ebp
	pop	ebp
	ret	0
?value@error_condition@std@@QBEHXZ ENDP			; std::error_condition::value
_TEXT	ENDS
; Function compile flags: /Odtp /RTCsu /ZI
;	COMDAT ??0error_condition@std@@QAE@HABVerror_category@1@@Z
_TEXT	SEGMENT
_this$ = -8						; size = 4
__Val$ = 8						; size = 4
__Cat$ = 12						; size = 4
??0error_condition@std@@QAE@HABVerror_category@1@@Z PROC ; std::error_condition::error_condition, COMDAT
; _this$ = ecx
; File c:\program files (x86)\microsoft visual studio 11.0\vc\include\system_error
; Line 316
	push	ebp
	mov	ebp, esp
	sub	esp, 204				; 000000ccH
	push	ebx
	push	esi
	push	edi
	push	ecx
	lea	edi, DWORD PTR [ebp-204]
	mov	ecx, 51					; 00000033H
	mov	eax, -858993460				; ccccccccH
	rep stosd
	pop	ecx
	mov	DWORD PTR _this$[ebp], ecx
	mov	eax, DWORD PTR _this$[ebp]
	mov	ecx, DWORD PTR __Val$[ebp]
	mov	DWORD PTR [eax], ecx
	mov	eax, DWORD PTR _this$[ebp]
	mov	ecx, DWORD PTR __Cat$[ebp]
	mov	DWORD PTR [eax+4], ecx
; Line 317
	mov	eax, DWORD PTR _this$[ebp]
	pop	edi
	pop	esi
	pop	ebx
	mov	esp, ebp
	pop	ebp
	ret	8
??0error_condition@std@@QAE@HABVerror_category@1@@Z ENDP ; std::error_condition::error_condition
_TEXT	ENDS
; Function compile flags: /Odtp /RTCsu /ZI
;	COMDAT ?category@error_code@std@@QBEABVerror_category@2@XZ
_TEXT	SEGMENT
_this$ = -8						; size = 4
?category@error_code@std@@QBEABVerror_category@2@XZ PROC ; std::error_code::category, COMDAT
; _this$ = ecx
; File c:\program files (x86)\microsoft visual studio 11.0\vc\include\system_error
; Line 256
	push	ebp
	mov	ebp, esp
	sub	esp, 204				; 000000ccH
	push	ebx
	push	esi
	push	edi
	push	ecx
	lea	edi, DWORD PTR [ebp-204]
	mov	ecx, 51					; 00000033H
	mov	eax, -858993460				; ccccccccH
	rep stosd
	pop	ecx
	mov	DWORD PTR _this$[ebp], ecx
; Line 257
	mov	eax, DWORD PTR _this$[ebp]
	mov	eax, DWORD PTR [eax+4]
; Line 258
	pop	edi
	pop	esi
	pop	ebx
	mov	esp, ebp
	pop	ebp
	ret	0
?category@error_code@std@@QBEABVerror_category@2@XZ ENDP ; std::error_code::category
_TEXT	ENDS
; Function compile flags: /Odtp /RTCsu /ZI
;	COMDAT ?value@error_code@std@@QBEHXZ
_TEXT	SEGMENT
_this$ = -8						; size = 4
?value@error_code@std@@QBEHXZ PROC			; std::error_code::value, COMDAT
; _this$ = ecx
; File c:\program files (x86)\microsoft visual studio 11.0\vc\include\system_error
; Line 251
	push	ebp
	mov	ebp, esp
	sub	esp, 204				; 000000ccH
	push	ebx
	push	esi
	push	edi
	push	ecx
	lea	edi, DWORD PTR [ebp-204]
	mov	ecx, 51					; 00000033H
	mov	eax, -858993460				; ccccccccH
	rep stosd
	pop	ecx
	mov	DWORD PTR _this$[ebp], ecx
; Line 252
	mov	eax, DWORD PTR _this$[ebp]
	mov	eax, DWORD PTR [eax]
; Line 253
	pop	edi
	pop	esi
	pop	ebx
	mov	esp, ebp
	pop	ebp
	ret	0
?value@error_code@std@@QBEHXZ ENDP			; std::error_code::value
_TEXT	ENDS
; Function compile flags: /Odtp /RTCsu /ZI
;	COMDAT ??_Gerror_category@std@@UAEPAXI@Z
_TEXT	SEGMENT
_this$ = -8						; size = 4
___flags$ = 8						; size = 4
??_Gerror_category@std@@UAEPAXI@Z PROC			; std::error_category::`scalar deleting destructor', COMDAT
; _this$ = ecx
	push	ebp
	mov	ebp, esp
	sub	esp, 204				; 000000ccH
	push	ebx
	push	esi
	push	edi
	push	ecx
	lea	edi, DWORD PTR [ebp-204]
	mov	ecx, 51					; 00000033H
	mov	eax, -858993460				; ccccccccH
	rep stosd
	pop	ecx
	mov	DWORD PTR _this$[ebp], ecx
	mov	ecx, DWORD PTR _this$[ebp]
	call	??1error_category@std@@UAE@XZ		; std::error_category::~error_category
	mov	eax, DWORD PTR ___flags$[ebp]
	and	eax, 1
	je	SHORT $LN1@scalar
	mov	eax, DWORD PTR _this$[ebp]
	push	eax
	call	??3@YAXPAX@Z				; operator delete
	add	esp, 4
$LN1@scalar:
	mov	eax, DWORD PTR _this$[ebp]
	pop	edi
	pop	esi
	pop	ebx
	add	esp, 204				; 000000ccH
	cmp	ebp, esp
	call	__RTC_CheckEsp
	mov	esp, ebp
	pop	ebp
	ret	4
??_Gerror_category@std@@UAEPAXI@Z ENDP			; std::error_category::`scalar deleting destructor'
_TEXT	ENDS
; Function compile flags: /Odtp /RTCsu /ZI
;	COMDAT ??8error_category@std@@QBE_NABV01@@Z
_TEXT	SEGMENT
tv65 = -208						; size = 4
_this$ = -8						; size = 4
__Right$ = 8						; size = 4
??8error_category@std@@QBE_NABV01@@Z PROC		; std::error_category::operator==, COMDAT
; _this$ = ecx
; File c:\program files (x86)\microsoft visual studio 11.0\vc\include\system_error
; Line 184
	push	ebp
	mov	ebp, esp
	sub	esp, 208				; 000000d0H
	push	ebx
	push	esi
	push	edi
	push	ecx
	lea	edi, DWORD PTR [ebp-208]
	mov	ecx, 52					; 00000034H
	mov	eax, -858993460				; ccccccccH
	rep stosd
	pop	ecx
	mov	DWORD PTR _this$[ebp], ecx
; Line 185
	mov	eax, DWORD PTR _this$[ebp]
	cmp	eax, DWORD PTR __Right$[ebp]
	jne	SHORT $LN3@operator
	mov	DWORD PTR tv65[ebp], 1
	jmp	SHORT $LN4@operator
$LN3@operator:
	mov	DWORD PTR tv65[ebp], 0
$LN4@operator:
	mov	al, BYTE PTR tv65[ebp]
; Line 186
	pop	edi
	pop	esi
	pop	ebx
	mov	esp, ebp
	pop	ebp
	ret	4
??8error_category@std@@QBE_NABV01@@Z ENDP		; std::error_category::operator==
_TEXT	ENDS
; Function compile flags: /Odtp /RTCsu /ZI
;	COMDAT ?equivalent@error_category@std@@UBE_NABVerror_code@2@H@Z
_TEXT	SEGMENT
tv74 = -208						; size = 4
_this$ = -8						; size = 4
__Code$ = 8						; size = 4
__Errval$ = 12						; size = 4
?equivalent@error_category@std@@UBE_NABVerror_code@2@H@Z PROC ; std::error_category::equivalent, COMDAT
; _this$ = ecx
; File c:\program files (x86)\microsoft visual studio 11.0\vc\include\system_error
; Line 415
	push	ebp
	mov	ebp, esp
	sub	esp, 208				; 000000d0H
	push	ebx
	push	esi
	push	edi
	push	ecx
	lea	edi, DWORD PTR [ebp-208]
	mov	ecx, 52					; 00000034H
	mov	eax, -858993460				; ccccccccH
	rep stosd
	pop	ecx
	mov	DWORD PTR _this$[ebp], ecx
; Line 416
	mov	ecx, DWORD PTR __Code$[ebp]
	call	?category@error_code@std@@QBEABVerror_category@2@XZ ; std::error_code::category
	push	eax
	mov	ecx, DWORD PTR _this$[ebp]
	call	??8error_category@std@@QBE_NABV01@@Z	; std::error_category::operator==
	movzx	eax, al
	test	eax, eax
	je	SHORT $LN3@equivalent
	mov	ecx, DWORD PTR __Code$[ebp]
	call	?value@error_code@std@@QBEHXZ		; std::error_code::value
	cmp	eax, DWORD PTR __Errval$[ebp]
	jne	SHORT $LN3@equivalent
	mov	DWORD PTR tv74[ebp], 1
	jmp	SHORT $LN4@equivalent
$LN3@equivalent:
	mov	DWORD PTR tv74[ebp], 0
$LN4@equivalent:
	mov	al, BYTE PTR tv74[ebp]
; Line 417
	pop	edi
	pop	esi
	pop	ebx
	add	esp, 208				; 000000d0H
	cmp	ebp, esp
	call	__RTC_CheckEsp
	mov	esp, ebp
	pop	ebp
	ret	8
?equivalent@error_category@std@@UBE_NABVerror_code@2@H@Z ENDP ; std::error_category::equivalent
_TEXT	ENDS
; Function compile flags: /Odtp /RTCsu /ZI
;	COMDAT ?equivalent@error_category@std@@UBE_NHABVerror_condition@2@@Z
_TEXT	SEGMENT
$T1 = -216						; size = 8
_this$ = -8						; size = 4
__Errval$ = 8						; size = 4
__Cond$ = 12						; size = 4
?equivalent@error_category@std@@UBE_NHABVerror_condition@2@@Z PROC ; std::error_category::equivalent, COMDAT
; _this$ = ecx
; File c:\program files (x86)\microsoft visual studio 11.0\vc\include\system_error
; Line 408
	push	ebp
	mov	ebp, esp
	sub	esp, 220				; 000000dcH
	push	ebx
	push	esi
	push	edi
	push	ecx
	lea	edi, DWORD PTR [ebp-220]
	mov	ecx, 55					; 00000037H
	mov	eax, -858993460				; ccccccccH
	rep stosd
	pop	ecx
	mov	DWORD PTR _this$[ebp], ecx
; Line 409
	mov	eax, DWORD PTR __Cond$[ebp]
	push	eax
	mov	esi, esp
	mov	ecx, DWORD PTR __Errval$[ebp]
	push	ecx
	lea	edx, DWORD PTR $T1[ebp]
	push	edx
	mov	eax, DWORD PTR _this$[ebp]
	mov	edx, DWORD PTR [eax]
	mov	ecx, DWORD PTR _this$[ebp]
	mov	eax, DWORD PTR [edx+12]
	call	eax
	cmp	esi, esp
	call	__RTC_CheckEsp
	mov	ecx, eax
	call	??8error_condition@std@@QBE_NABV01@@Z	; std::error_condition::operator==
; Line 410
	pop	edi
	pop	esi
	pop	ebx
	add	esp, 220				; 000000dcH
	cmp	ebp, esp
	call	__RTC_CheckEsp
	mov	esp, ebp
	pop	ebp
	ret	8
?equivalent@error_category@std@@UBE_NHABVerror_condition@2@@Z ENDP ; std::error_category::equivalent
_TEXT	ENDS
; Function compile flags: /Odtp /RTCsu /ZI
;	COMDAT ?default_error_condition@error_category@std@@UBE?AVerror_condition@2@H@Z
_TEXT	SEGMENT
_this$ = -8						; size = 4
___$ReturnUdt$ = 8					; size = 4
__Errval$ = 12						; size = 4
?default_error_condition@error_category@std@@UBE?AVerror_condition@2@H@Z PROC ; std::error_category::default_error_condition, COMDAT
; _this$ = ecx
; File c:\program files (x86)\microsoft visual studio 11.0\vc\include\system_error
; Line 401
	push	ebp
	mov	ebp, esp
	sub	esp, 204				; 000000ccH
	push	ebx
	push	esi
	push	edi
	push	ecx
	lea	edi, DWORD PTR [ebp-204]
	mov	ecx, 51					; 00000033H
	mov	eax, -858993460				; ccccccccH
	rep stosd
	pop	ecx
	mov	DWORD PTR _this$[ebp], ecx
; Line 402
	mov	eax, DWORD PTR _this$[ebp]
	push	eax
	mov	ecx, DWORD PTR __Errval$[ebp]
	push	ecx
	mov	ecx, DWORD PTR ___$ReturnUdt$[ebp]
	call	??0error_condition@std@@QAE@HABVerror_category@1@@Z ; std::error_condition::error_condition
	mov	eax, DWORD PTR ___$ReturnUdt$[ebp]
; Line 403
	pop	edi
	pop	esi
	pop	ebx
	add	esp, 204				; 000000ccH
	cmp	ebp, esp
	call	__RTC_CheckEsp
	mov	esp, ebp
	pop	ebp
	ret	8
?default_error_condition@error_category@std@@UBE?AVerror_condition@2@H@Z ENDP ; std::error_category::default_error_condition
_TEXT	ENDS
; Function compile flags: /Odtp /RTCsu /ZI
;	COMDAT ??1error_category@std@@UAE@XZ
_TEXT	SEGMENT
_this$ = -8						; size = 4
??1error_category@std@@UAE@XZ PROC			; std::error_category::~error_category, COMDAT
; _this$ = ecx
; File c:\program files (x86)\microsoft visual studio 11.0\vc\include\system_error
; Line 167
	push	ebp
	mov	ebp, esp
	sub	esp, 204				; 000000ccH
	push	ebx
	push	esi
	push	edi
	push	ecx
	lea	edi, DWORD PTR [ebp-204]
	mov	ecx, 51					; 00000033H
	mov	eax, -858993460				; ccccccccH
	rep stosd
	pop	ecx
	mov	DWORD PTR _this$[ebp], ecx
	mov	eax, DWORD PTR _this$[ebp]
	mov	DWORD PTR [eax], OFFSET ??_7error_category@std@@6B@
; Line 168
	pop	edi
	pop	esi
	pop	ebx
	mov	esp, ebp
	pop	ebp
	ret	0
??1error_category@std@@UAE@XZ ENDP			; std::error_category::~error_category
_TEXT	ENDS
; Function compile flags: /Odtp /RTCsu /ZI
;	COMDAT ??0error_category@std@@QAE@XZ
_TEXT	SEGMENT
_this$ = -8						; size = 4
??0error_category@std@@QAE@XZ PROC			; std::error_category::error_category, COMDAT
; _this$ = ecx
; File c:\program files (x86)\microsoft visual studio 11.0\vc\include\system_error
; Line 162
	push	ebp
	mov	ebp, esp
	sub	esp, 204				; 000000ccH
	push	ebx
	push	esi
	push	edi
	push	ecx
	lea	edi, DWORD PTR [ebp-204]
	mov	ecx, 51					; 00000033H
	mov	eax, -858993460				; ccccccccH
	rep stosd
	pop	ecx
	mov	DWORD PTR _this$[ebp], ecx
	mov	eax, DWORD PTR _this$[ebp]
	mov	DWORD PTR [eax], OFFSET ??_7error_category@std@@6B@
; Line 164
	mov	eax, DWORD PTR _this$[ebp]
	pop	edi
	pop	esi
	pop	ebx
	mov	esp, ebp
	pop	ebp
	ret	0
??0error_category@std@@QAE@XZ ENDP			; std::error_category::error_category
_TEXT	ENDS
; Function compile flags: /Odtp /RTCsu /ZI
;	COMDAT ?system_category@std@@YAABVerror_category@1@XZ
_TEXT	SEGMENT
?system_category@std@@YAABVerror_category@1@XZ PROC	; std::system_category, COMDAT
; File c:\program files (x86)\microsoft visual studio 11.0\vc\include\system_error
; Line 679
	push	ebp
	mov	ebp, esp
	sub	esp, 192				; 000000c0H
	push	ebx
	push	esi
	push	edi
	lea	edi, DWORD PTR [ebp-192]
	mov	ecx, 48					; 00000030H
	mov	eax, -858993460				; ccccccccH
	rep stosd
; Line 680
	mov	eax, OFFSET ?_System_object@?$_Error_objects@H@std@@2V_System_error_category@2@A ; std::_Error_objects<int>::_System_object
; Line 681
	pop	edi
	pop	esi
	pop	ebx
	mov	esp, ebp
	pop	ebp
	ret	0
?system_category@std@@YAABVerror_category@1@XZ ENDP	; std::system_category
_TEXT	ENDS
; Function compile flags: /Odtp /RTCsu /ZI
;	COMDAT ?generic_category@std@@YAABVerror_category@1@XZ
_TEXT	SEGMENT
?generic_category@std@@YAABVerror_category@1@XZ PROC	; std::generic_category, COMDAT
; File c:\program files (x86)\microsoft visual studio 11.0\vc\include\system_error
; Line 669
	push	ebp
	mov	ebp, esp
	sub	esp, 192				; 000000c0H
	push	ebx
	push	esi
	push	edi
	lea	edi, DWORD PTR [ebp-192]
	mov	ecx, 48					; 00000030H
	mov	eax, -858993460				; ccccccccH
	rep stosd
; Line 670
	mov	eax, OFFSET ?_Generic_object@?$_Error_objects@H@std@@2V_Generic_error_category@2@A ; std::_Error_objects<int>::_Generic_object
; Line 671
	pop	edi
	pop	esi
	pop	ebx
	mov	esp, ebp
	pop	ebp
	ret	0
?generic_category@std@@YAABVerror_category@1@XZ ENDP	; std::generic_category
_TEXT	ENDS
; Function compile flags: /Odtp /RTCsu /ZI
;	COMDAT ??$_Debug_pointer@D@std@@YAXPBDPB_WI@Z
_TEXT	SEGMENT
__First$ = 8						; size = 4
__File$ = 12						; size = 4
__Line$ = 16						; size = 4
??$_Debug_pointer@D@std@@YAXPBDPB_WI@Z PROC		; std::_Debug_pointer<char>, COMDAT
; File c:\program files (x86)\microsoft visual studio 11.0\vc\include\xutility
; Line 610
	push	ebp
	mov	ebp, esp
	sub	esp, 192				; 000000c0H
	push	ebx
	push	esi
	push	edi
	lea	edi, DWORD PTR [ebp-192]
	mov	ecx, 48					; 00000030H
	mov	eax, -858993460				; ccccccccH
	rep stosd
; Line 611
	cmp	DWORD PTR __First$[ebp], 0
	jne	SHORT $LN2@Debug_poin
; Line 612
	mov	esi, esp
	mov	eax, DWORD PTR __Line$[ebp]
	push	eax
	mov	ecx, DWORD PTR __File$[ebp]
	push	ecx
	push	OFFSET ??_C@_1CK@EOPGIILJ@?$AAi?$AAn?$AAv?$AAa?$AAl?$AAi?$AAd?$AA?5?$AAn?$AAu?$AAl?$AAl?$AA?5?$AAp?$AAo?$AAi?$AAn?$AAt?$AAe?$AAr?$AA?$AA@
	call	DWORD PTR __imp_?_Debug_message@std@@YAXPB_W0I@Z
	add	esp, 12					; 0000000cH
	cmp	esi, esp
	call	__RTC_CheckEsp
$LN2@Debug_poin:
; Line 613
	pop	edi
	pop	esi
	pop	ebx
	add	esp, 192				; 000000c0H
	cmp	ebp, esp
	call	__RTC_CheckEsp
	mov	esp, ebp
	pop	ebp
	ret	0
??$_Debug_pointer@D@std@@YAXPBDPB_WI@Z ENDP		; std::_Debug_pointer<char>
_TEXT	ENDS
; Function compile flags: /Odtp /RTCsu /ZI
;	COMDAT ?_Xran@?$basic_string@DU?$char_traits@D@std@@V?$allocator@D@2@@std@@QBEXXZ
_TEXT	SEGMENT
_this$ = -8						; size = 4
?_Xran@?$basic_string@DU?$char_traits@D@std@@V?$allocator@D@2@@std@@QBEXXZ PROC ; std::basic_string<char,std::char_traits<char>,std::allocator<char> >::_Xran, COMDAT
; _this$ = ecx
; File c:\program files (x86)\microsoft visual studio 11.0\vc\include\xstring
; Line 2275
	push	ebp
	mov	ebp, esp
	sub	esp, 204				; 000000ccH
	push	ebx
	push	esi
	push	edi
	push	ecx
	lea	edi, DWORD PTR [ebp-204]
	mov	ecx, 51					; 00000033H
	mov	eax, -858993460				; ccccccccH
	rep stosd
	pop	ecx
	mov	DWORD PTR _this$[ebp], ecx
; Line 2276
	mov	esi, esp
	push	OFFSET ??_C@_0BI@CFPLBAOH@invalid?5string?5position?$AA@
	call	DWORD PTR __imp_?_Xout_of_range@std@@YAXPBD@Z
	cmp	esi, esp
	call	__RTC_CheckEsp
$LN2@Xran:
; Line 2277
	pop	edi
	pop	esi
	pop	ebx
	add	esp, 204				; 000000ccH
	cmp	ebp, esp
	call	__RTC_CheckEsp
	mov	esp, ebp
	pop	ebp
	ret	0
?_Xran@?$basic_string@DU?$char_traits@D@std@@V?$allocator@D@2@@std@@QBEXXZ ENDP ; std::basic_string<char,std::char_traits<char>,std::allocator<char> >::_Xran
_TEXT	ENDS
; Function compile flags: /Odtp /RTCsu /ZI
;	COMDAT ?_Xlen@?$basic_string@DU?$char_traits@D@std@@V?$allocator@D@2@@std@@QBEXXZ
_TEXT	SEGMENT
_this$ = -8						; size = 4
?_Xlen@?$basic_string@DU?$char_traits@D@std@@V?$allocator@D@2@@std@@QBEXXZ PROC ; std::basic_string<char,std::char_traits<char>,std::allocator<char> >::_Xlen, COMDAT
; _this$ = ecx
; File c:\program files (x86)\microsoft visual studio 11.0\vc\include\xstring
; Line 2270
	push	ebp
	mov	ebp, esp
	sub	esp, 204				; 000000ccH
	push	ebx
	push	esi
	push	edi
	push	ecx
	lea	edi, DWORD PTR [ebp-204]
	mov	ecx, 51					; 00000033H
	mov	eax, -858993460				; ccccccccH
	rep stosd
	pop	ecx
	mov	DWORD PTR _this$[ebp], ecx
; Line 2271
	mov	esi, esp
	push	OFFSET ??_C@_0BA@JFNIOLAK@string?5too?5long?$AA@
	call	DWORD PTR __imp_?_Xlength_error@std@@YAXPBD@Z
	cmp	esi, esp
	call	__RTC_CheckEsp
$LN2@Xlen:
; Line 2272
	pop	edi
	pop	esi
	pop	ebx
	add	esp, 204				; 000000ccH
	cmp	ebp, esp
	call	__RTC_CheckEsp
	mov	esp, ebp
	pop	ebp
	ret	0
?_Xlen@?$basic_string@DU?$char_traits@D@std@@V?$allocator@D@2@@std@@QBEXXZ ENDP ; std::basic_string<char,std::char_traits<char>,std::allocator<char> >::_Xlen
_TEXT	ENDS
; Function compile flags: /Odtp /RTCsu /ZI
;	COMDAT ?_Tidy@?$basic_string@DU?$char_traits@D@std@@V?$allocator@D@2@@std@@QAEX_NI@Z
_TEXT	SEGMENT
$T1 = -233						; size = 1
$T2 = -221						; size = 1
__Ptr$3 = -20						; size = 4
_this$ = -8						; size = 4
__Built$ = 8						; size = 1
__Newsize$ = 12						; size = 4
?_Tidy@?$basic_string@DU?$char_traits@D@std@@V?$allocator@D@2@@std@@QAEX_NI@Z PROC ; std::basic_string<char,std::char_traits<char>,std::allocator<char> >::_Tidy, COMDAT
; _this$ = ecx
; File c:\program files (x86)\microsoft visual studio 11.0\vc\include\xstring
; Line 2253
	push	ebp
	mov	ebp, esp
	sub	esp, 240				; 000000f0H
	push	ebx
	push	esi
	push	edi
	push	ecx
	lea	edi, DWORD PTR [ebp-240]
	mov	ecx, 60					; 0000003cH
	mov	eax, -858993460				; ccccccccH
	rep stosd
	pop	ecx
	mov	DWORD PTR _this$[ebp], ecx
; Line 2254
	movzx	eax, BYTE PTR __Built$[ebp]
	test	eax, eax
	jne	SHORT $LN4@Tidy
	jmp	SHORT $LN3@Tidy
$LN4@Tidy:
; Line 2256
	mov	eax, DWORD PTR _this$[ebp]
	cmp	DWORD PTR [eax+24], 16			; 00000010H
	jb	SHORT $LN3@Tidy
; Line 2258
	mov	eax, DWORD PTR _this$[ebp]
	mov	ecx, DWORD PTR [eax+4]
	mov	DWORD PTR __Ptr$3[ebp], ecx
; Line 2259
	mov	eax, DWORD PTR _this$[ebp]
	add	eax, 4
	push	eax
	lea	ecx, DWORD PTR $T1[ebp]
	push	ecx
	mov	ecx, DWORD PTR _this$[ebp]
	call	?_Getal@?$_String_alloc@$0A@U?$_String_base_types@DV?$allocator@D@std@@@std@@@std@@QBE?AU?$_Wrap_alloc@V?$allocator@D@std@@@2@XZ ; std::_String_alloc<0,std::_String_base_types<char,std::allocator<char> > >::_Getal
	mov	ecx, eax
	call	??$destroy@PAD@?$_Wrap_alloc@V?$allocator@D@std@@@std@@QAEXPAPAD@Z ; std::_Wrap_alloc<std::allocator<char> >::destroy<char *>
; Line 2260
	cmp	DWORD PTR __Newsize$[ebp], 0
	jbe	SHORT $LN1@Tidy
; Line 2262
	mov	eax, DWORD PTR __Newsize$[ebp]
	push	eax
	mov	ecx, DWORD PTR __Ptr$3[ebp]
	push	ecx
	call	??$addressof@D@std@@YAPADAAD@Z		; std::addressof<char>
	add	esp, 4
	push	eax
	mov	edx, DWORD PTR _this$[ebp]
	add	edx, 4
	push	edx
	call	?copy@?$char_traits@D@std@@SAPADPADPBDI@Z ; std::char_traits<char>::copy
	add	esp, 12					; 0000000cH
$LN1@Tidy:
; Line 2263
	mov	eax, DWORD PTR _this$[ebp]
	mov	ecx, DWORD PTR [eax+24]
	add	ecx, 1
	push	ecx
	mov	edx, DWORD PTR __Ptr$3[ebp]
	push	edx
	lea	eax, DWORD PTR $T2[ebp]
	push	eax
	mov	ecx, DWORD PTR _this$[ebp]
	call	?_Getal@?$_String_alloc@$0A@U?$_String_base_types@DV?$allocator@D@std@@@std@@@std@@QBE?AU?$_Wrap_alloc@V?$allocator@D@std@@@2@XZ ; std::_String_alloc<0,std::_String_base_types<char,std::allocator<char> > >::_Getal
	mov	ecx, eax
	call	?deallocate@?$_Wrap_alloc@V?$allocator@D@std@@@std@@QAEXPADI@Z ; std::_Wrap_alloc<std::allocator<char> >::deallocate
$LN3@Tidy:
; Line 2265
	mov	eax, DWORD PTR _this$[ebp]
	mov	DWORD PTR [eax+24], 15			; 0000000fH
; Line 2266
	mov	eax, DWORD PTR __Newsize$[ebp]
	push	eax
	mov	ecx, DWORD PTR _this$[ebp]
	call	?_Eos@?$basic_string@DU?$char_traits@D@std@@V?$allocator@D@2@@std@@QAEXI@Z ; std::basic_string<char,std::char_traits<char>,std::allocator<char> >::_Eos
; Line 2267
	pop	edi
	pop	esi
	pop	ebx
	add	esp, 240				; 000000f0H
	cmp	ebp, esp
	call	__RTC_CheckEsp
	mov	esp, ebp
	pop	ebp
	ret	8
?_Tidy@?$basic_string@DU?$char_traits@D@std@@V?$allocator@D@2@@std@@QAEX_NI@Z ENDP ; std::basic_string<char,std::char_traits<char>,std::allocator<char> >::_Tidy
_TEXT	ENDS
; Function compile flags: /Odtp /RTCsu /ZI
;	COMDAT ?_Inside@?$basic_string@DU?$char_traits@D@std@@V?$allocator@D@2@@std@@QAE_NPBD@Z
_TEXT	SEGMENT
_this$ = -8						; size = 4
__Ptr$ = 8						; size = 4
?_Inside@?$basic_string@DU?$char_traits@D@std@@V?$allocator@D@2@@std@@QAE_NPBD@Z PROC ; std::basic_string<char,std::char_traits<char>,std::allocator<char> >::_Inside, COMDAT
; _this$ = ecx
; File c:\program files (x86)\microsoft visual studio 11.0\vc\include\xstring
; Line 2237
	push	ebp
	mov	ebp, esp
	sub	esp, 204				; 000000ccH
	push	ebx
	push	esi
	push	edi
	push	ecx
	lea	edi, DWORD PTR [ebp-204]
	mov	ecx, 51					; 00000033H
	mov	eax, -858993460				; ccccccccH
	rep stosd
	pop	ecx
	mov	DWORD PTR _this$[ebp], ecx
; Line 2239
	cmp	DWORD PTR __Ptr$[ebp], 0
	je	SHORT $LN2@Inside
	mov	ecx, DWORD PTR _this$[ebp]
	call	?_Myptr@?$_String_val@U?$_Simple_types@D@std@@@std@@QAEPADXZ ; std::_String_val<std::_Simple_types<char> >::_Myptr
	cmp	DWORD PTR __Ptr$[ebp], eax
	jb	SHORT $LN2@Inside
	mov	ecx, DWORD PTR _this$[ebp]
	call	?_Myptr@?$_String_val@U?$_Simple_types@D@std@@@std@@QAEPADXZ ; std::_String_val<std::_Simple_types<char> >::_Myptr
	mov	ecx, DWORD PTR _this$[ebp]
	add	eax, DWORD PTR [ecx+20]
	cmp	eax, DWORD PTR __Ptr$[ebp]
	ja	SHORT $LN3@Inside
$LN2@Inside:
; Line 2240
	xor	al, al
	jmp	SHORT $LN4@Inside
; Line 2241
	jmp	SHORT $LN4@Inside
$LN3@Inside:
; Line 2242
	mov	al, 1
$LN4@Inside:
; Line 2243
	pop	edi
	pop	esi
	pop	ebx
	add	esp, 204				; 000000ccH
	cmp	ebp, esp
	call	__RTC_CheckEsp
	mov	esp, ebp
	pop	ebp
	ret	4
?_Inside@?$basic_string@DU?$char_traits@D@std@@V?$allocator@D@2@@std@@QAE_NPBD@Z ENDP ; std::basic_string<char,std::char_traits<char>,std::allocator<char> >::_Inside
_TEXT	ENDS
; Function compile flags: /Odtp /RTCsu /ZI
;	COMDAT ?_Grow@?$basic_string@DU?$char_traits@D@std@@V?$allocator@D@2@@std@@QAE_NI_N@Z
_TEXT	SEGMENT
tv136 = -208						; size = 4
tv129 = -208						; size = 4
_this$ = -8						; size = 4
__Newsize$ = 8						; size = 4
__Trim$ = 12						; size = 1
?_Grow@?$basic_string@DU?$char_traits@D@std@@V?$allocator@D@2@@std@@QAE_NI_N@Z PROC ; std::basic_string<char,std::char_traits<char>,std::allocator<char> >::_Grow, COMDAT
; _this$ = ecx
; File c:\program files (x86)\microsoft visual studio 11.0\vc\include\xstring
; Line 2223
	push	ebp
	mov	ebp, esp
	sub	esp, 208				; 000000d0H
	push	ebx
	push	esi
	push	edi
	push	ecx
	lea	edi, DWORD PTR [ebp-208]
	mov	ecx, 52					; 00000034H
	mov	eax, -858993460				; ccccccccH
	rep stosd
	pop	ecx
	mov	DWORD PTR _this$[ebp], ecx
; Line 2224
	mov	ecx, DWORD PTR _this$[ebp]
	call	?max_size@?$basic_string@DU?$char_traits@D@std@@V?$allocator@D@2@@std@@QBEIXZ ; std::basic_string<char,std::char_traits<char>,std::allocator<char> >::max_size
	cmp	eax, DWORD PTR __Newsize$[ebp]
	jae	SHORT $LN6@Grow
; Line 2225
	mov	ecx, DWORD PTR _this$[ebp]
	call	?_Xlen@?$basic_string@DU?$char_traits@D@std@@V?$allocator@D@2@@std@@QBEXXZ ; std::basic_string<char,std::char_traits<char>,std::allocator<char> >::_Xlen
$LN6@Grow:
; Line 2226
	mov	eax, DWORD PTR _this$[ebp]
	mov	ecx, DWORD PTR [eax+24]
	cmp	ecx, DWORD PTR __Newsize$[ebp]
	jae	SHORT $LN5@Grow
; Line 2227
	mov	eax, DWORD PTR _this$[ebp]
	mov	ecx, DWORD PTR [eax+20]
	push	ecx
	mov	edx, DWORD PTR __Newsize$[ebp]
	push	edx
	mov	ecx, DWORD PTR _this$[ebp]
	call	?_Copy@?$basic_string@DU?$char_traits@D@std@@V?$allocator@D@2@@std@@QAEXII@Z ; std::basic_string<char,std::char_traits<char>,std::allocator<char> >::_Copy
	jmp	SHORT $LN4@Grow
$LN5@Grow:
; Line 2228
	movzx	eax, BYTE PTR __Trim$[ebp]
	test	eax, eax
	je	SHORT $LN3@Grow
	cmp	DWORD PTR __Newsize$[ebp], 16		; 00000010H
	jae	SHORT $LN3@Grow
; Line 2230
	mov	eax, DWORD PTR _this$[ebp]
	mov	ecx, DWORD PTR __Newsize$[ebp]
	cmp	ecx, DWORD PTR [eax+20]
	jae	SHORT $LN9@Grow
	mov	edx, DWORD PTR __Newsize$[ebp]
	mov	DWORD PTR tv129[ebp], edx
	jmp	SHORT $LN10@Grow
$LN9@Grow:
	mov	eax, DWORD PTR _this$[ebp]
	mov	ecx, DWORD PTR [eax+20]
	mov	DWORD PTR tv129[ebp], ecx
$LN10@Grow:
	mov	edx, DWORD PTR tv129[ebp]
	push	edx
	push	1
	mov	ecx, DWORD PTR _this$[ebp]
	call	?_Tidy@?$basic_string@DU?$char_traits@D@std@@V?$allocator@D@2@@std@@QAEX_NI@Z ; std::basic_string<char,std::char_traits<char>,std::allocator<char> >::_Tidy
	jmp	SHORT $LN4@Grow
$LN3@Grow:
; Line 2231
	cmp	DWORD PTR __Newsize$[ebp], 0
	jne	SHORT $LN4@Grow
; Line 2232
	push	0
	mov	ecx, DWORD PTR _this$[ebp]
	call	?_Eos@?$basic_string@DU?$char_traits@D@std@@V?$allocator@D@2@@std@@QAEXI@Z ; std::basic_string<char,std::char_traits<char>,std::allocator<char> >::_Eos
$LN4@Grow:
; Line 2233
	cmp	DWORD PTR __Newsize$[ebp], 0
	jbe	SHORT $LN11@Grow
	mov	DWORD PTR tv136[ebp], 1
	jmp	SHORT $LN12@Grow
$LN11@Grow:
	mov	DWORD PTR tv136[ebp], 0
$LN12@Grow:
	mov	al, BYTE PTR tv136[ebp]
$LN8@Grow:
; Line 2234
	pop	edi
	pop	esi
	pop	ebx
	add	esp, 208				; 000000d0H
	cmp	ebp, esp
	call	__RTC_CheckEsp
	mov	esp, ebp
	pop	ebp
	ret	8
?_Grow@?$basic_string@DU?$char_traits@D@std@@V?$allocator@D@2@@std@@QAE_NI_N@Z ENDP ; std::basic_string<char,std::char_traits<char>,std::allocator<char> >::_Grow
_TEXT	ENDS
; Function compile flags: /Odtp /RTCsu /ZI
;	COMDAT ?_Eos@?$basic_string@DU?$char_traits@D@std@@V?$allocator@D@2@@std@@QAEXI@Z
_TEXT	SEGMENT
$T1 = -209						; size = 1
_this$ = -8						; size = 4
__Newsize$ = 8						; size = 4
?_Eos@?$basic_string@DU?$char_traits@D@std@@V?$allocator@D@2@@std@@QAEXI@Z PROC ; std::basic_string<char,std::char_traits<char>,std::allocator<char> >::_Eos, COMDAT
; _this$ = ecx
; File c:\program files (x86)\microsoft visual studio 11.0\vc\include\xstring
; Line 2217
	push	ebp
	mov	ebp, esp
	sub	esp, 216				; 000000d8H
	push	ebx
	push	esi
	push	edi
	push	ecx
	lea	edi, DWORD PTR [ebp-216]
	mov	ecx, 54					; 00000036H
	mov	eax, -858993460				; ccccccccH
	rep stosd
	pop	ecx
	mov	DWORD PTR _this$[ebp], ecx
; Line 2218
	mov	BYTE PTR $T1[ebp], 0
	mov	eax, DWORD PTR _this$[ebp]
	mov	ecx, DWORD PTR __Newsize$[ebp]
	mov	DWORD PTR [eax+20], ecx
	lea	edx, DWORD PTR $T1[ebp]
	push	edx
	mov	ecx, DWORD PTR _this$[ebp]
	call	?_Myptr@?$_String_val@U?$_Simple_types@D@std@@@std@@QAEPADXZ ; std::_String_val<std::_Simple_types<char> >::_Myptr
	add	eax, DWORD PTR __Newsize$[ebp]
	push	eax
	call	?assign@?$char_traits@D@std@@SAXAADABD@Z ; std::char_traits<char>::assign
	add	esp, 8
; Line 2219
	pop	edi
	pop	esi
	pop	ebx
	add	esp, 216				; 000000d8H
	cmp	ebp, esp
	call	__RTC_CheckEsp
	mov	esp, ebp
	pop	ebp
	ret	4
?_Eos@?$basic_string@DU?$char_traits@D@std@@V?$allocator@D@2@@std@@QAEXI@Z ENDP ; std::basic_string<char,std::char_traits<char>,std::allocator<char> >::_Eos
_TEXT	ENDS
; Function compile flags: /Odtp /RTCsu /ZI
;	COMDAT ?_Copy@?$basic_string@DU?$char_traits@D@std@@V?$allocator@D@2@@std@@QAEXII@Z
_TEXT	SEGMENT
tv205 = -288						; size = 4
tv203 = -288						; size = 4
tv204 = -284						; size = 4
tv202 = -284						; size = 4
$T2 = -273						; size = 1
$T3 = -261						; size = 1
$T4 = -249						; size = 1
__Ptr$ = -48						; size = 4
__Newres$ = -36						; size = 4
_this$ = -24						; size = 4
__$EHRec$ = -16						; size = 16
__Newsize$ = 8						; size = 4
__Oldlen$ = 12						; size = 4
?_Copy@?$basic_string@DU?$char_traits@D@std@@V?$allocator@D@2@@std@@QAEXII@Z PROC ; std::basic_string<char,std::char_traits<char>,std::allocator<char> >::_Copy, COMDAT
; _this$ = ecx
; File c:\program files (x86)\microsoft visual studio 11.0\vc\include\xstring
; Line 2182
	push	ebp
	mov	ebp, esp
	push	-1
	push	__ehhandler$?_Copy@?$basic_string@DU?$char_traits@D@std@@V?$allocator@D@2@@std@@QAEXII@Z
	mov	eax, DWORD PTR fs:0
	push	eax
	push	ecx
	sub	esp, 272				; 00000110H
	push	ebx
	push	esi
	push	edi
	push	ecx
	lea	edi, DWORD PTR [ebp-288]
	mov	ecx, 68					; 00000044H
	mov	eax, -858993460				; ccccccccH
	rep stosd
	pop	ecx
	mov	eax, DWORD PTR ___security_cookie
	xor	eax, ebp
	push	eax
	lea	eax, DWORD PTR __$EHRec$[ebp+4]
	mov	DWORD PTR fs:0, eax
	mov	DWORD PTR __$EHRec$[ebp], esp
	mov	DWORD PTR _this$[ebp], ecx
; Line 2183
	mov	eax, DWORD PTR __Newsize$[ebp]
	or	eax, 15					; 0000000fH
	mov	DWORD PTR __Newres$[ebp], eax
; Line 2184
	mov	ecx, DWORD PTR _this$[ebp]
	call	?max_size@?$basic_string@DU?$char_traits@D@std@@V?$allocator@D@2@@std@@QBEIXZ ; std::basic_string<char,std::char_traits<char>,std::allocator<char> >::max_size
	cmp	eax, DWORD PTR __Newres$[ebp]
	jae	SHORT $LN9@Copy
; Line 2185
	mov	eax, DWORD PTR __Newsize$[ebp]
	mov	DWORD PTR __Newres$[ebp], eax
	jmp	SHORT $LN8@Copy
$LN9@Copy:
; Line 2186
	mov	eax, DWORD PTR __Newres$[ebp]
	xor	edx, edx
	mov	ecx, 3
	div	ecx
	mov	edx, DWORD PTR _this$[ebp]
	mov	ecx, DWORD PTR [edx+24]
	shr	ecx, 1
	cmp	ecx, eax
	ja	SHORT $LN7@Copy
	jmp	SHORT $LN8@Copy
$LN7@Copy:
; Line 2188
	mov	eax, DWORD PTR _this$[ebp]
	mov	esi, DWORD PTR [eax+24]
	shr	esi, 1
	mov	ecx, DWORD PTR _this$[ebp]
	call	?max_size@?$basic_string@DU?$char_traits@D@std@@V?$allocator@D@2@@std@@QBEIXZ ; std::basic_string<char,std::char_traits<char>,std::allocator<char> >::max_size
	sub	eax, esi
	mov	ecx, DWORD PTR _this$[ebp]
	cmp	DWORD PTR [ecx+24], eax
	ja	SHORT $LN5@Copy
; Line 2190
	mov	eax, DWORD PTR _this$[ebp]
	mov	ecx, DWORD PTR [eax+24]
	shr	ecx, 1
	mov	edx, DWORD PTR _this$[ebp]
	add	ecx, DWORD PTR [edx+24]
	mov	DWORD PTR __Newres$[ebp], ecx
; Line 2191
	jmp	SHORT $LN8@Copy
$LN5@Copy:
; Line 2192
	mov	ecx, DWORD PTR _this$[ebp]
	call	?max_size@?$basic_string@DU?$char_traits@D@std@@V?$allocator@D@2@@std@@QBEIXZ ; std::basic_string<char,std::char_traits<char>,std::allocator<char> >::max_size
	mov	DWORD PTR __Newres$[ebp], eax
$LN8@Copy:
; Line 2195
	mov	DWORD PTR __$EHRec$[ebp+12], 0
; Line 2196
	lea	eax, DWORD PTR $T2[ebp]
	push	eax
	mov	ecx, DWORD PTR _this$[ebp]
	call	?_Getal@?$_String_alloc@$0A@U?$_String_base_types@DV?$allocator@D@std@@@std@@@std@@QBE?AU?$_Wrap_alloc@V?$allocator@D@std@@@2@XZ ; std::_String_alloc<0,std::_String_base_types<char,std::allocator<char> > >::_Getal
	mov	DWORD PTR tv202[ebp], eax
	mov	ecx, DWORD PTR __Newres$[ebp]
	add	ecx, 1
	push	ecx
	mov	ecx, DWORD PTR tv202[ebp]
	call	?allocate@?$_Wrap_alloc@V?$allocator@D@std@@@std@@QAEPADI@Z ; std::_Wrap_alloc<std::allocator<char> >::allocate
	mov	DWORD PTR tv203[ebp], eax
	mov	edx, DWORD PTR tv203[ebp]
	mov	DWORD PTR __Ptr$[ebp], edx
	jmp	SHORT $LN12@Copy
__catch$?_Copy@?$basic_string@DU?$char_traits@D@std@@V?$allocator@D@2@@std@@QAEXII@Z$0:
; Line 2197
	mov	DWORD PTR __$EHRec$[ebp], esp
; Line 2198
	mov	eax, DWORD PTR __Newsize$[ebp]
	mov	DWORD PTR __Newres$[ebp], eax
; Line 2199
	mov	BYTE PTR __$EHRec$[ebp+12], 2
; Line 2200
	lea	eax, DWORD PTR $T3[ebp]
	push	eax
	mov	ecx, DWORD PTR _this$[ebp]
	call	?_Getal@?$_String_alloc@$0A@U?$_String_base_types@DV?$allocator@D@std@@@std@@@std@@QBE?AU?$_Wrap_alloc@V?$allocator@D@std@@@2@XZ ; std::_String_alloc<0,std::_String_base_types<char,std::allocator<char> > >::_Getal
	mov	DWORD PTR tv204[ebp], eax
	mov	ecx, DWORD PTR __Newres$[ebp]
	add	ecx, 1
	push	ecx
	mov	ecx, DWORD PTR tv204[ebp]
	call	?allocate@?$_Wrap_alloc@V?$allocator@D@std@@@std@@QAEPADI@Z ; std::_Wrap_alloc<std::allocator<char> >::allocate
	mov	DWORD PTR tv205[ebp], eax
	mov	edx, DWORD PTR tv205[ebp]
	mov	DWORD PTR __Ptr$[ebp], edx
	jmp	SHORT $LN14@Copy
__catch$?_Copy@?$basic_string@DU?$char_traits@D@std@@V?$allocator@D@2@@std@@QAEXII@Z$1:
; Line 2202
	push	0
	push	1
	mov	ecx, DWORD PTR _this$[ebp]
	call	?_Tidy@?$basic_string@DU?$char_traits@D@std@@V?$allocator@D@2@@std@@QAEX_NI@Z ; std::basic_string<char,std::char_traits<char>,std::allocator<char> >::_Tidy
; Line 2203
	push	0
	push	0
	call	__CxxThrowException@8
; Line 2204
	mov	eax, $LN17@Copy
	ret	0
$LN14@Copy:
	mov	DWORD PTR __$EHRec$[ebp+12], 1
	jmp	SHORT __tryend$?_Copy@?$basic_string@DU?$char_traits@D@std@@V?$allocator@D@2@@std@@QAEXII@Z$2
$LN17@Copy:
	mov	DWORD PTR __$EHRec$[ebp+12], 1
__tryend$?_Copy@?$basic_string@DU?$char_traits@D@std@@V?$allocator@D@2@@std@@QAEXII@Z$2:
; Line 2205
	mov	eax, $LN19@Copy
	ret	0
$LN12@Copy:
	mov	DWORD PTR __$EHRec$[ebp+12], -1
	jmp	SHORT __tryend$?_Copy@?$basic_string@DU?$char_traits@D@std@@V?$allocator@D@2@@std@@QAEXII@Z$3
$LN19@Copy:
	mov	DWORD PTR __$EHRec$[ebp+12], -1
__tryend$?_Copy@?$basic_string@DU?$char_traits@D@std@@V?$allocator@D@2@@std@@QAEXII@Z$3:
; Line 2207
	cmp	DWORD PTR __Oldlen$[ebp], 0
	jbe	SHORT $LN1@Copy
; Line 2209
	mov	eax, DWORD PTR __Oldlen$[ebp]
	push	eax
	mov	ecx, DWORD PTR _this$[ebp]
	call	?_Myptr@?$_String_val@U?$_Simple_types@D@std@@@std@@QAEPADXZ ; std::_String_val<std::_Simple_types<char> >::_Myptr
	push	eax
	mov	ecx, DWORD PTR __Ptr$[ebp]
	push	ecx
	call	?copy@?$char_traits@D@std@@SAPADPADPBDI@Z ; std::char_traits<char>::copy
	add	esp, 12					; 0000000cH
$LN1@Copy:
; Line 2210
	push	0
	push	1
	mov	ecx, DWORD PTR _this$[ebp]
	call	?_Tidy@?$basic_string@DU?$char_traits@D@std@@V?$allocator@D@2@@std@@QAEX_NI@Z ; std::basic_string<char,std::char_traits<char>,std::allocator<char> >::_Tidy
; Line 2211
	lea	eax, DWORD PTR __Ptr$[ebp]
	push	eax
	mov	ecx, DWORD PTR _this$[ebp]
	add	ecx, 4
	push	ecx
	lea	edx, DWORD PTR $T4[ebp]
	push	edx
	mov	ecx, DWORD PTR _this$[ebp]
	call	?_Getal@?$_String_alloc@$0A@U?$_String_base_types@DV?$allocator@D@std@@@std@@@std@@QBE?AU?$_Wrap_alloc@V?$allocator@D@std@@@2@XZ ; std::_String_alloc<0,std::_String_base_types<char,std::allocator<char> > >::_Getal
	mov	ecx, eax
	call	??$construct@PADAAPAD@?$_Wrap_alloc@V?$allocator@D@std@@@std@@QAEXPAPADAAPAD@Z ; std::_Wrap_alloc<std::allocator<char> >::construct<char *,char * &>
; Line 2212
	mov	eax, DWORD PTR _this$[ebp]
	mov	ecx, DWORD PTR __Newres$[ebp]
	mov	DWORD PTR [eax+24], ecx
; Line 2213
	mov	eax, DWORD PTR __Oldlen$[ebp]
	push	eax
	mov	ecx, DWORD PTR _this$[ebp]
	call	?_Eos@?$basic_string@DU?$char_traits@D@std@@V?$allocator@D@2@@std@@QAEXI@Z ; std::basic_string<char,std::char_traits<char>,std::allocator<char> >::_Eos
$LN11@Copy:
; Line 2214
	push	edx
